ARM GAS  /var/folders/5c/srt4fy4j1pd641bjfx75k5000000gn/T//ccct1RTz.s 			page 1


   1              		.cpu cortex-m4
   2              		.arch armv7e-m
   3              		.fpu fpv4-sp-d16
   4              		.eabi_attribute 27, 1
   5              		.eabi_attribute 28, 1
   6              		.eabi_attribute 20, 1
   7              		.eabi_attribute 21, 1
   8              		.eabi_attribute 23, 3
   9              		.eabi_attribute 24, 1
  10              		.eabi_attribute 25, 1
  11              		.eabi_attribute 26, 1
  12              		.eabi_attribute 30, 1
  13              		.eabi_attribute 34, 1
  14              		.eabi_attribute 18, 4
  15              		.file	"app.cpp"
  16              		.text
  17              	.Ltext0:
  18              		.cfi_sections	.debug_frame
  19              		.file 1 "src/app/app.cpp"
  20              		.section	.text._ZN5RobotD2Ev,"axG",%progbits,_ZN5RobotD5Ev,comdat
  21              		.align	1
  22              		.weak	_ZN5RobotD2Ev
  23              		.syntax unified
  24              		.thumb
  25              		.thumb_func
  27              	_ZN5RobotD2Ev:
  28              		.fnstart
  29              	.LVL0:
  30              	.LFB280:
  31              		.file 2 "src/unit/robot/robot.hpp"
   1:src/unit/robot/robot.hpp **** #ifndef __ROBOT__
   2:src/unit/robot/robot.hpp **** #define __ROBOT__
   3:src/unit/robot/robot.hpp **** 
   4:src/unit/robot/robot.hpp **** #include "BufferedSerial.hpp"
   5:src/unit/robot/robot.hpp **** #include "DigitalInOut.hpp"
   6:src/unit/robot/robot.hpp **** #include "MovingAve.hpp"
   7:src/unit/robot/robot.hpp **** #include "PWMSingle.hpp"
   8:src/unit/robot/robot.hpp **** #include "Timer.hpp"
   9:src/unit/robot/robot.hpp **** #include "adc.h"
  10:src/unit/robot/robot.hpp **** #include "config.h"
  11:src/unit/robot/robot.hpp **** #include "dribbler_drive.hpp"
  12:src/unit/robot/robot.hpp **** #include "kicker.hpp"
  13:src/unit/robot/robot.hpp **** #include "main.h"
  14:src/unit/robot/robot.hpp **** #include "motor_drive.hpp"
  15:src/unit/robot/robot.hpp **** 
  16:src/unit/robot/robot.hpp **** #define VOLTAGE_CONVERTION 0.01298828125
  17:src/unit/robot/robot.hpp **** 
  18:src/unit/robot/robot.hpp **** struct RobotInfo {
  19:src/unit/robot/robot.hpp ****       float voltage;
  20:src/unit/robot/robot.hpp ****       float motor_rad_s[4];
  21:src/unit/robot/robot.hpp **** 
  22:src/unit/robot/robot.hpp ****       uint8_t mode;
  23:src/unit/robot/robot.hpp **** 
  24:src/unit/robot/robot.hpp ****       float target_move_speed, target_line_move_speed;
  25:src/unit/robot/robot.hpp ****       struct {
  26:src/unit/robot/robot.hpp ****             bool is_initialized = 0;
  27:src/unit/robot/robot.hpp **** 
ARM GAS  /var/folders/5c/srt4fy4j1pd641bjfx75k5000000gn/T//ccct1RTz.s 			page 2


  28:src/unit/robot/robot.hpp ****             uint8_t interval;
  29:src/unit/robot/robot.hpp ****             uint8_t depth;
  30:src/unit/robot/robot.hpp ****             bool is_on_line;
  31:src/unit/robot/robot.hpp ****             bool is_leftside;
  32:src/unit/robot/robot.hpp ****             bool is_rightside;
  33:src/unit/robot/robot.hpp ****             int16_t dir;
  34:src/unit/robot/robot.hpp ****             int16_t inside_dir;
  35:src/unit/robot/robot.hpp **** 
  36:src/unit/robot/robot.hpp ****             bool on_led;
  37:src/unit/robot/robot.hpp ****       } Line;
  38:src/unit/robot/robot.hpp ****       struct {
  39:src/unit/robot/robot.hpp ****             uint16_t front_val;
  40:src/unit/robot/robot.hpp ****             bool is_front;
  41:src/unit/robot/robot.hpp ****             uint16_t back_val;
  42:src/unit/robot/robot.hpp ****             bool is_back;
  43:src/unit/robot/robot.hpp ****       } Catch;
  44:src/unit/robot/robot.hpp ****       struct {
  45:src/unit/robot/robot.hpp ****             bool is_initialized = 0;
  46:src/unit/robot/robot.hpp **** 
  47:src/unit/robot/robot.hpp ****             int16_t yaw;
  48:src/unit/robot/robot.hpp ****             int16_t pitch;
  49:src/unit/robot/robot.hpp ****             int16_t roll;
  50:src/unit/robot/robot.hpp ****             int16_t yaw_correction_val;
  51:src/unit/robot/robot.hpp ****       } Imu;
  52:src/unit/robot/robot.hpp **** 
  53:src/unit/robot/robot.hpp ****       struct {
  54:src/unit/robot/robot.hpp ****             bool reset_yaw;
  55:src/unit/robot/robot.hpp ****             bool success_reset_yaw;
  56:src/unit/robot/robot.hpp ****             bool success_reset_line;
  57:src/unit/robot/robot.hpp ****             bool reset_line;
  58:src/unit/robot/robot.hpp ****             uint8_t dribbler_sig;
  59:src/unit/robot/robot.hpp ****             int8_t item;
  60:src/unit/robot/robot.hpp ****             uint8_t sub_item;
  61:src/unit/robot/robot.hpp **** 
  62:src/unit/robot/robot.hpp ****             int16_t debug[2];
  63:src/unit/robot/robot.hpp ****       } Ui;
  64:src/unit/robot/robot.hpp **** 
  65:src/unit/robot/robot.hpp ****       struct {
  66:src/unit/robot/robot.hpp ****             bool is_initialized = 0;
  67:src/unit/robot/robot.hpp **** 
  68:src/unit/robot/robot.hpp ****             int16_t ball_dir;
  69:src/unit/robot/robot.hpp ****             uint8_t ball_dis;
  70:src/unit/robot/robot.hpp ****             float ball_x;
  71:src/unit/robot/robot.hpp ****             float ball_y;
  72:src/unit/robot/robot.hpp ****             float ball_vel;
  73:src/unit/robot/robot.hpp ****             float ball_vel_x;
  74:src/unit/robot/robot.hpp ****             float ball_vel_y;
  75:src/unit/robot/robot.hpp **** 
  76:src/unit/robot/robot.hpp ****             int16_t yellow_goal_dir;
  77:src/unit/robot/robot.hpp ****             uint8_t yellow_goal_dis;
  78:src/unit/robot/robot.hpp ****             int16_t blue_goal_dir;
  79:src/unit/robot/robot.hpp ****             uint8_t blue_goal_dis;
  80:src/unit/robot/robot.hpp ****             int16_t own_goal_dir;
  81:src/unit/robot/robot.hpp ****             uint8_t own_goal_dis;
  82:src/unit/robot/robot.hpp ****             int16_t ops_goal_dir;
  83:src/unit/robot/robot.hpp ****             uint8_t ops_goal_dis;
  84:src/unit/robot/robot.hpp **** 
ARM GAS  /var/folders/5c/srt4fy4j1pd641bjfx75k5000000gn/T//ccct1RTz.s 			page 3


  85:src/unit/robot/robot.hpp ****             int16_t own_x;
  86:src/unit/robot/robot.hpp ****             int16_t own_y;
  87:src/unit/robot/robot.hpp ****             int16_t center_dir;
  88:src/unit/robot/robot.hpp ****             int16_t center_dis;
  89:src/unit/robot/robot.hpp **** 
  90:src/unit/robot/robot.hpp ****             bool is_goal_front;
  91:src/unit/robot/robot.hpp ****             bool is_goal_back;
  92:src/unit/robot/robot.hpp ****             uint8_t proximity[4];
  93:src/unit/robot/robot.hpp ****       } Cam;
  94:src/unit/robot/robot.hpp **** 
  95:src/unit/robot/robot.hpp ****       struct {
  96:src/unit/robot/robot.hpp ****             int16_t top_yaw;
  97:src/unit/robot/robot.hpp ****             int16_t ir_dir;
  98:src/unit/robot/robot.hpp ****             uint8_t ir_dis;
  99:src/unit/robot/robot.hpp **** 
 100:src/unit/robot/robot.hpp ****             bool do_rotate;
 101:src/unit/robot/robot.hpp ****             bool on_ir_led;
 102:src/unit/robot/robot.hpp ****             struct {
 103:src/unit/robot/robot.hpp ****                   bool is_connected;
 104:src/unit/robot/robot.hpp **** 
 105:src/unit/robot/robot.hpp ****                   struct {
 106:src/unit/robot/robot.hpp ****                         bool is_moving;
 107:src/unit/robot/robot.hpp ****                         bool is_holding_ball;
 108:src/unit/robot/robot.hpp ****                         bool is_defence;
 109:src/unit/robot/robot.hpp ****                         bool can_get_pass;
 110:src/unit/robot/robot.hpp ****                   } Me, Ally;
 111:src/unit/robot/robot.hpp ****             } Bluetooth;
 112:src/unit/robot/robot.hpp ****             struct {
 113:src/unit/robot/robot.hpp ****                   bool is_connected;
 114:src/unit/robot/robot.hpp **** 
 115:src/unit/robot/robot.hpp ****                   int16_t move_dir;
 116:src/unit/robot/robot.hpp ****                   float move_speed;
 117:src/unit/robot/robot.hpp ****                   int16_t face_angle;
 118:src/unit/robot/robot.hpp ****                   bool do_kick;
 119:src/unit/robot/robot.hpp ****                   bool do_dribble;
 120:src/unit/robot/robot.hpp ****                   bool stop;
 121:src/unit/robot/robot.hpp ****             } Wifi;
 122:src/unit/robot/robot.hpp ****       } Esp32;
 123:src/unit/robot/robot.hpp **** };
 124:src/unit/robot/robot.hpp **** class Robot {
  32              		.loc 2 124 7 view -0
  33              		.cfi_startproc
  34              		@ args = 0, pretend = 0, frame = 0
  35              		@ frame_needed = 0, uses_anonymous_args = 0
  36              		.loc 2 124 7 is_stmt 0 view .LVU1
  37 0000 10B5     		push	{r4, lr}
  38              	.LCFI0:
  39              		.cfi_def_cfa_offset 8
  40              		.cfi_offset 4, -8
  41              		.cfi_offset 14, -4
  42 0002 0446     		mov	r4, r0
  43              	.LVL1:
  44              	.LBB27:
  45              	.LBI27:
  46              		.file 3 "Lib/BufferedSerial/BufferedSerial.hpp"
   1:Lib/BufferedSerial/BufferedSerial.hpp **** #ifndef __BUFFERED_SERIAL__
   2:Lib/BufferedSerial/BufferedSerial.hpp **** #define __BUFFERED_SERIAL__
ARM GAS  /var/folders/5c/srt4fy4j1pd641bjfx75k5000000gn/T//ccct1RTz.s 			page 4


   3:Lib/BufferedSerial/BufferedSerial.hpp **** 
   4:Lib/BufferedSerial/BufferedSerial.hpp **** #include <stdio.h>
   5:Lib/BufferedSerial/BufferedSerial.hpp **** 
   6:Lib/BufferedSerial/BufferedSerial.hpp **** #include "usart.h"
   7:Lib/BufferedSerial/BufferedSerial.hpp **** 
   8:Lib/BufferedSerial/BufferedSerial.hpp **** #ifdef __cplusplus
   9:Lib/BufferedSerial/BufferedSerial.hpp **** 
  10:Lib/BufferedSerial/BufferedSerial.hpp **** /*
  11:Lib/BufferedSerial/BufferedSerial.hpp ****  Initの順番をDMAが先になるようにする
  12:Lib/BufferedSerial/BufferedSerial.hpp ****  - MX_DMA_Init();
  13:Lib/BufferedSerial/BufferedSerial.hpp ****  - MX_USART2_UART_Init();
  14:Lib/BufferedSerial/BufferedSerial.hpp ****  - DMAはCircularモードにする
  15:Lib/BufferedSerial/BufferedSerial.hpp **** */
  16:Lib/BufferedSerial/BufferedSerial.hpp **** 
  17:Lib/BufferedSerial/BufferedSerial.hpp **** class BufferedSerial {
  18:Lib/BufferedSerial/BufferedSerial.hpp ****      public:
  19:Lib/BufferedSerial/BufferedSerial.hpp ****       BufferedSerial(UART_HandleTypeDef *huart, uint16_t rxBufSize)
  20:Lib/BufferedSerial/BufferedSerial.hpp ****           : _huart(huart),
  21:Lib/BufferedSerial/BufferedSerial.hpp ****             _rxBuf(new uint8_t[rxBufSize]),
  22:Lib/BufferedSerial/BufferedSerial.hpp ****             rxTop(0),
  23:Lib/BufferedSerial/BufferedSerial.hpp ****             rxBtm(0),
  24:Lib/BufferedSerial/BufferedSerial.hpp ****             _rxBufSize(rxBufSize),
  25:Lib/BufferedSerial/BufferedSerial.hpp ****             _useDMA(false) {}
  26:Lib/BufferedSerial/BufferedSerial.hpp ****       ~BufferedSerial() {
  47              		.loc 3 26 7 is_stmt 1 view .LVU2
  48              	.LBB28:
  27:Lib/BufferedSerial/BufferedSerial.hpp ****             delete[] _rxBuf;
  49              		.loc 3 27 13 view .LVU3
  50              		.loc 3 27 22 is_stmt 0 view .LVU4
  51 0004 00F58053 		add	r3, r0, #4096
  52 0008 D3F85001 		ldr	r0, [r3, #336]
  53              	.LVL2:
  54              		.loc 3 27 13 view .LVU5
  55 000c 08B1     		cbz	r0, .L2
  56              		.loc 3 27 22 view .LVU6
  57 000e FFF7FEFF 		bl	_ZdaPv
  58              	.LVL3:
  59              	.L2:
  60              		.loc 3 27 22 view .LVU7
  61              	.LBE28:
  62              	.LBE27:
  63              	.LBB29:
  64              	.LBI29:
  26:Lib/BufferedSerial/BufferedSerial.hpp ****             delete[] _rxBuf;
  65              		.loc 3 26 7 is_stmt 1 view .LVU8
  66              	.LBB30:
  67              		.loc 3 27 13 view .LVU9
  68              		.loc 3 27 22 is_stmt 0 view .LVU10
  69 0012 04F58053 		add	r3, r4, #4096
  70 0016 D3F84001 		ldr	r0, [r3, #320]
  71              		.loc 3 27 13 view .LVU11
  72 001a 08B1     		cbz	r0, .L3
  73              		.loc 3 27 22 view .LVU12
  74 001c FFF7FEFF 		bl	_ZdaPv
  75              	.LVL4:
  76              	.L3:
  77              		.loc 3 27 22 view .LVU13
ARM GAS  /var/folders/5c/srt4fy4j1pd641bjfx75k5000000gn/T//ccct1RTz.s 			page 5


  78              	.LBE30:
  79              	.LBE29:
  80              	.LBB31:
  81              	.LBI31:
  26:Lib/BufferedSerial/BufferedSerial.hpp ****             delete[] _rxBuf;
  82              		.loc 3 26 7 is_stmt 1 view .LVU14
  83              	.LBB32:
  84              		.loc 3 27 13 view .LVU15
  85              		.loc 3 27 22 is_stmt 0 view .LVU16
  86 0020 04F58053 		add	r3, r4, #4096
  87 0024 D3F83001 		ldr	r0, [r3, #304]
  88              		.loc 3 27 13 view .LVU17
  89 0028 08B1     		cbz	r0, .L4
  90              		.loc 3 27 22 view .LVU18
  91 002a FFF7FEFF 		bl	_ZdaPv
  92              	.LVL5:
  93              	.L4:
  94              		.loc 3 27 22 view .LVU19
  95              	.LBE32:
  96              	.LBE31:
  97              	.LBB33:
  98              	.LBI33:
  26:Lib/BufferedSerial/BufferedSerial.hpp ****             delete[] _rxBuf;
  99              		.loc 3 26 7 is_stmt 1 view .LVU20
 100              	.LBB34:
 101              		.loc 3 27 13 view .LVU21
 102              		.loc 3 27 22 is_stmt 0 view .LVU22
 103 002e 04F58053 		add	r3, r4, #4096
 104 0032 D3F82001 		ldr	r0, [r3, #288]
 105              		.loc 3 27 13 view .LVU23
 106 0036 08B1     		cbz	r0, .L5
 107              		.loc 3 27 22 view .LVU24
 108 0038 FFF7FEFF 		bl	_ZdaPv
 109              	.LVL6:
 110              	.L5:
 111              		.loc 3 27 22 view .LVU25
 112              	.LBE34:
 113              	.LBE33:
 114              	.LBB35:
 115              	.LBI35:
  26:Lib/BufferedSerial/BufferedSerial.hpp ****             delete[] _rxBuf;
 116              		.loc 3 26 7 is_stmt 1 view .LVU26
 117              	.LBB36:
 118              		.loc 3 27 13 view .LVU27
 119              		.loc 3 27 22 is_stmt 0 view .LVU28
 120 003c 04F58053 		add	r3, r4, #4096
 121 0040 D3F81001 		ldr	r0, [r3, #272]
 122              		.loc 3 27 13 view .LVU29
 123 0044 08B1     		cbz	r0, .L6
 124              		.loc 3 27 22 view .LVU30
 125 0046 FFF7FEFF 		bl	_ZdaPv
 126              	.LVL7:
 127              	.L6:
 128              		.loc 3 27 22 view .LVU31
 129              	.LBE36:
 130              	.LBE35:
 131              		.loc 2 124 7 view .LVU32
ARM GAS  /var/folders/5c/srt4fy4j1pd641bjfx75k5000000gn/T//ccct1RTz.s 			page 6


 132 004a 2046     		mov	r0, r4
 133 004c 10BD     		pop	{r4, pc}
 134              		.loc 2 124 7 view .LVU33
 135              		.cfi_endproc
 136              	.LFE280:
 137              		.cantunwind
 138              		.fnend
 140              		.weak	_ZN5RobotD1Ev
 141              		.thumb_set _ZN5RobotD1Ev,_ZN5RobotD2Ev
 142              		.section	.text._Z41__static_initialization_and_destruction_0ii,"ax",%progbits
 143              		.align	1
 144              		.syntax unified
 145              		.thumb
 146              		.thumb_func
 148              	_Z41__static_initialization_and_destruction_0ii:
 149              		.fnstart
 150              	.LVL8:
 151              	.LFB278:
   1:src/app/app.cpp **** #include "app.h"
   2:src/app/app.cpp **** 
   3:src/app/app.cpp **** #include "mode.hpp"
   4:src/app/app.cpp **** #include "robot.hpp"
   5:src/app/app.cpp **** 
   6:src/app/app.cpp **** Robot robot;
   7:src/app/app.cpp **** Mode mode(&robot);
   8:src/app/app.cpp **** 
   9:src/app/app.cpp **** void TimInterrupt1khz() {
  10:src/app/app.cpp ****       robot.heartBeat();
  11:src/app/app.cpp ****       robot.kicker.Control();
  12:src/app/app.cpp **** }
  13:src/app/app.cpp **** 
  14:src/app/app.cpp **** void setup() {
  15:src/app/app.cpp ****       robot.HardwareInit();
  16:src/app/app.cpp **** }
  17:src/app/app.cpp **** 
  18:src/app/app.cpp **** void main_app() {
  19:src/app/app.cpp ****       while (1) {
  20:src/app/app.cpp ****             mode.MainMode();
  21:src/app/app.cpp ****       }
  22:src/app/app.cpp **** }...
 152              		.loc 1 22 1 is_stmt 1 view -0
 153              		.cfi_startproc
 154              		@ args = 0, pretend = 0, frame = 0
 155              		@ frame_needed = 0, uses_anonymous_args = 0
 156              		.loc 1 22 1 is_stmt 0 view .LVU35
 157 0000 0128     		cmp	r0, #1
 158 0002 00D0     		beq	.L14
 159 0004 7047     		bx	lr
 160              	.L14:
 161              		.loc 1 22 1 discriminator 1 view .LVU36
 162 0006 38B5     		push	{r3, r4, r5, lr}
 163              	.LCFI1:
 164              		.cfi_def_cfa_offset 16
 165              		.cfi_offset 3, -16
 166              		.cfi_offset 4, -12
 167              		.cfi_offset 5, -8
 168              		.cfi_offset 14, -4
ARM GAS  /var/folders/5c/srt4fy4j1pd641bjfx75k5000000gn/T//ccct1RTz.s 			page 7


 169              		.loc 1 22 1 discriminator 1 view .LVU37
 170 0008 4FF6FF73 		movw	r3, #65535
 171 000c 9942     		cmp	r1, r3
 172 000e 00D0     		beq	.L15
 173              	.LVL9:
 174              	.L8:
 175              		.loc 1 22 1 view .LVU38
 176 0010 38BD     		pop	{r3, r4, r5, pc}
 177              	.LVL10:
 178              	.L15:
   6:src/app/app.cpp **** Robot robot;
 179              		.loc 1 6 7 view .LVU39
 180 0012 074C     		ldr	r4, .L16
 181 0014 2046     		mov	r0, r4
 182              	.LVL11:
   6:src/app/app.cpp **** Robot robot;
 183              		.loc 1 6 7 view .LVU40
 184 0016 FFF7FEFF 		bl	_ZN5RobotC1Ev
 185              	.LVL12:
   6:src/app/app.cpp **** Robot robot;
 186              		.loc 1 6 7 view .LVU41
 187 001a 064A     		ldr	r2, .L16+4
 188 001c 0649     		ldr	r1, .L16+8
 189 001e 2046     		mov	r0, r4
 190 0020 FFF7FEFF 		bl	__aeabi_atexit
 191              	.LVL13:
 192              	.LBB37:
 193              	.LBI37:
 194              		.file 4 "src/mode/mode.hpp"
   1:src/mode/mode.hpp **** #ifndef MODE_HPP  // インクルードガードの開始
   2:src/mode/mode.hpp **** #define MODE_HPP
   3:src/mode/mode.hpp **** #include "robot.hpp"
   4:src/mode/mode.hpp **** 
   5:src/mode/mode.hpp **** #define BALL_NEAR_FRONT abs(robot->info.Cam.ball_dir) < 30 && robot->info.Cam.ball_dis < 20
   6:src/mode/mode.hpp **** #define BALL_NEAR_BACK abs(robot->info.Cam.ball_dir) > 150 && robot->info.Cam.ball_dis < 20
   7:src/mode/mode.hpp **** class Mode {
   8:src/mode/mode.hpp ****      public:
   9:src/mode/mode.hpp ****       Mode(Robot* robotPtr) : robot(robotPtr) {}
 195              		.loc 4 9 7 is_stmt 1 view .LVU42
 196              	.LBB38:
 197              	.LBB39:
 198              		.loc 4 9 45 is_stmt 0 view .LVU43
 199 0024 054D     		ldr	r5, .L16+12
 200 0026 2846     		mov	r0, r5
 201 0028 FFF7FEFF 		bl	_ZN5TimerC1Ev
 202              	.LVL14:
 203              		.loc 4 9 31 view .LVU44
 204 002c 6C60     		str	r4, [r5, #4]
 205              	.LVL15:
 206              		.loc 4 9 31 view .LVU45
 207              	.LBE39:
 208              	.LBE38:
 209              	.LBE37:
 210              		.loc 1 22 1 view .LVU46
 211 002e EFE7     		b	.L8
 212              	.L17:
 213              		.align	2
ARM GAS  /var/folders/5c/srt4fy4j1pd641bjfx75k5000000gn/T//ccct1RTz.s 			page 8


 214              	.L16:
 215 0030 00000000 		.word	robot
 216 0034 00000000 		.word	__dso_handle
 217 0038 00000000 		.word	_ZN5RobotD1Ev
 218 003c 00000000 		.word	mode
 219              		.cfi_endproc
 220              	.LFE278:
 221              		.cantunwind
 222              		.fnend
 224              		.global	__aeabi_f2d
 225              		.global	__aeabi_ui2d
 226              		.global	__aeabi_dmul
 227              		.global	__aeabi_d2iz
 228              		.section	.text._ZN12PwmSingleOut5writeEf,"axG",%progbits,_ZN12PwmSingleOut5writeEf,comdat
 229              		.align	1
 230              		.weak	_ZN12PwmSingleOut5writeEf
 231              		.syntax unified
 232              		.thumb
 233              		.thumb_func
 235              	_ZN12PwmSingleOut5writeEf:
 236              		.fnstart
 237              	.LVL16:
 238              	.LFB268:
 239              		.file 5 "Lib/PWMSingle/PWMSingle.hpp"
   1:Lib/PWMSingle/PWMSingle.hpp **** #ifndef __PWMSINGLE__
   2:Lib/PWMSingle/PWMSingle.hpp **** #define __PWMSINGLE__
   3:Lib/PWMSingle/PWMSingle.hpp **** 
   4:Lib/PWMSingle/PWMSingle.hpp **** #include "MyMath.hpp"
   5:Lib/PWMSingle/PWMSingle.hpp **** #include "tim.h"
   6:Lib/PWMSingle/PWMSingle.hpp **** 
   7:Lib/PWMSingle/PWMSingle.hpp **** #ifdef __cplusplus
   8:Lib/PWMSingle/PWMSingle.hpp **** extern "C" {
   9:Lib/PWMSingle/PWMSingle.hpp **** 
  10:Lib/PWMSingle/PWMSingle.hpp **** class PwmSingleOut {
  11:Lib/PWMSingle/PWMSingle.hpp ****      public:
  12:Lib/PWMSingle/PWMSingle.hpp ****       PwmSingleOut(TIM_HandleTypeDef *htim, uint32_t channel)
  13:Lib/PWMSingle/PWMSingle.hpp ****           : _htim(htim), _channel(channel), _maxValue(_htim->Init.Period) {
  14:Lib/PWMSingle/PWMSingle.hpp ****       }
  15:Lib/PWMSingle/PWMSingle.hpp **** 
  16:Lib/PWMSingle/PWMSingle.hpp ****       void init() {
  17:Lib/PWMSingle/PWMSingle.hpp ****             HAL_TIM_PWM_Start(_htim, _channel);
  18:Lib/PWMSingle/PWMSingle.hpp ****             _maxValue = _htim->Init.Period;
  19:Lib/PWMSingle/PWMSingle.hpp ****       }
  20:Lib/PWMSingle/PWMSingle.hpp **** 
  21:Lib/PWMSingle/PWMSingle.hpp ****       void write(float duty) {
 240              		.loc 5 21 12 is_stmt 1 view -0
 241              		.cfi_startproc
 242              		@ args = 0, pretend = 0, frame = 0
 243              		@ frame_needed = 0, uses_anonymous_args = 0
 244              		.loc 5 21 12 is_stmt 0 view .LVU48
 245 0000 D0B5     		push	{r4, r6, r7, lr}
 246              	.LCFI2:
 247              		.cfi_def_cfa_offset 16
 248              		.cfi_offset 4, -16
 249              		.cfi_offset 6, -12
 250              		.cfi_offset 7, -8
 251              		.cfi_offset 14, -4
ARM GAS  /var/folders/5c/srt4fy4j1pd641bjfx75k5000000gn/T//ccct1RTz.s 			page 9


 252 0002 0446     		mov	r4, r0
  22:Lib/PWMSingle/PWMSingle.hpp ****             duty = (int)(Constrain(duty, 0.0, 1.0) * _maxValue);
 253              		.loc 5 22 13 is_stmt 1 view .LVU49
 254              		.loc 5 22 26 is_stmt 0 view .LVU50
 255 0004 B5EEC00A 		vcmpe.f32	s0, #0
 256 0008 F1EE10FA 		vmrs	APSR_nzcv, FPSCR
 257 000c 10D4     		bmi	.L24
 258              		.loc 5 22 26 discriminator 2 view .LVU51
 259 000e F7EE007A 		vmov.f32	s15, #1.0e+0
 260 0012 B4EEE70A 		vcmpe.f32	s0, s15
 261 0016 F1EE10FA 		vmrs	APSR_nzcv, FPSCR
 262 001a 02DD     		ble	.L27
 263              		.loc 5 22 26 view .LVU52
 264 001c 0026     		movs	r6, #0
 265 001e 1D4F     		ldr	r7, .L30
 266 0020 08E0     		b	.L19
 267              	.L27:
 268              		.loc 5 22 26 discriminator 5 view .LVU53
 269 0022 10EE100A 		vmov	r0, s0
 270              	.LVL17:
 271              		.loc 5 22 26 discriminator 5 view .LVU54
 272 0026 FFF7FEFF 		bl	__aeabi_f2d
 273              	.LVL18:
 274              		.loc 5 22 26 discriminator 5 view .LVU55
 275 002a 0646     		mov	r6, r0
 276 002c 0F46     		mov	r7, r1
 277 002e 01E0     		b	.L19
 278              	.LVL19:
 279              	.L24:
 280              		.loc 5 22 26 view .LVU56
 281 0030 0026     		movs	r6, #0
 282 0032 0027     		movs	r7, #0
 283              	.LVL20:
 284              	.L19:
 285              		.loc 5 22 52 discriminator 8 view .LVU57
 286 0034 A068     		ldr	r0, [r4, #8]
 287 0036 FFF7FEFF 		bl	__aeabi_ui2d
 288              	.LVL21:
 289 003a 3246     		mov	r2, r6
 290 003c 3B46     		mov	r3, r7
 291 003e FFF7FEFF 		bl	__aeabi_dmul
 292              	.LVL22:
 293              		.loc 5 22 20 discriminator 8 view .LVU58
 294 0042 FFF7FEFF 		bl	__aeabi_d2iz
 295              	.LVL23:
 296 0046 07EE900A 		vmov	s15, r0	@ int
 297              		.loc 5 22 18 discriminator 8 view .LVU59
 298 004a F8EEE77A 		vcvt.f32.s32	s15, s15
 299              	.LVL24:
  23:Lib/PWMSingle/PWMSingle.hpp ****             __HAL_TIM_SET_COMPARE(_htim, _channel, duty);
 300              		.loc 5 23 13 is_stmt 1 discriminator 8 view .LVU60
 301 004e 6368     		ldr	r3, [r4, #4]
 302 0050 33B9     		cbnz	r3, .L20
 303              		.loc 5 23 13 is_stmt 0 discriminator 1 view .LVU61
 304 0052 2368     		ldr	r3, [r4]
 305 0054 1B68     		ldr	r3, [r3]
 306 0056 FCEEE77A 		vcvt.u32.f32	s15, s15
ARM GAS  /var/folders/5c/srt4fy4j1pd641bjfx75k5000000gn/T//ccct1RTz.s 			page 10


 307              	.LVL25:
 308              		.loc 5 23 13 discriminator 1 view .LVU62
 309 005a C3ED0D7A 		vstr.32	s15, [r3, #52]	@ int
 310              	.L18:
  24:Lib/PWMSingle/PWMSingle.hpp ****       }
 311              		.loc 5 24 7 view .LVU63
 312 005e D0BD     		pop	{r4, r6, r7, pc}
 313              	.LVL26:
 314              	.L20:
  23:Lib/PWMSingle/PWMSingle.hpp ****             __HAL_TIM_SET_COMPARE(_htim, _channel, duty);
 315              		.loc 5 23 13 discriminator 2 view .LVU64
 316 0060 042B     		cmp	r3, #4
 317 0062 08D0     		beq	.L28
  23:Lib/PWMSingle/PWMSingle.hpp ****             __HAL_TIM_SET_COMPARE(_htim, _channel, duty);
 318              		.loc 5 23 13 discriminator 4 view .LVU65
 319 0064 082B     		cmp	r3, #8
 320 0066 0DD0     		beq	.L29
  23:Lib/PWMSingle/PWMSingle.hpp ****             __HAL_TIM_SET_COMPARE(_htim, _channel, duty);
 321              		.loc 5 23 13 discriminator 6 view .LVU66
 322 0068 2368     		ldr	r3, [r4]
 323 006a 1B68     		ldr	r3, [r3]
 324 006c FCEEE77A 		vcvt.u32.f32	s15, s15
 325              	.LVL27:
  23:Lib/PWMSingle/PWMSingle.hpp ****             __HAL_TIM_SET_COMPARE(_htim, _channel, duty);
 326              		.loc 5 23 13 discriminator 6 view .LVU67
 327 0070 C3ED107A 		vstr.32	s15, [r3, #64]	@ int
 328              		.loc 5 24 7 discriminator 6 view .LVU68
 329 0074 F3E7     		b	.L18
 330              	.LVL28:
 331              	.L28:
  23:Lib/PWMSingle/PWMSingle.hpp ****             __HAL_TIM_SET_COMPARE(_htim, _channel, duty);
 332              		.loc 5 23 13 discriminator 3 view .LVU69
 333 0076 2368     		ldr	r3, [r4]
 334 0078 1B68     		ldr	r3, [r3]
 335 007a FCEEE77A 		vcvt.u32.f32	s15, s15
 336              	.LVL29:
  23:Lib/PWMSingle/PWMSingle.hpp ****             __HAL_TIM_SET_COMPARE(_htim, _channel, duty);
 337              		.loc 5 23 13 discriminator 3 view .LVU70
 338 007e C3ED0E7A 		vstr.32	s15, [r3, #56]	@ int
 339 0082 ECE7     		b	.L18
 340              	.LVL30:
 341              	.L29:
  23:Lib/PWMSingle/PWMSingle.hpp ****             __HAL_TIM_SET_COMPARE(_htim, _channel, duty);
 342              		.loc 5 23 13 discriminator 5 view .LVU71
 343 0084 2368     		ldr	r3, [r4]
 344 0086 1B68     		ldr	r3, [r3]
 345 0088 FCEEE77A 		vcvt.u32.f32	s15, s15
 346              	.LVL31:
  23:Lib/PWMSingle/PWMSingle.hpp ****             __HAL_TIM_SET_COMPARE(_htim, _channel, duty);
 347              		.loc 5 23 13 discriminator 5 view .LVU72
 348 008c C3ED0F7A 		vstr.32	s15, [r3, #60]	@ int
 349 0090 E5E7     		b	.L18
 350              	.L31:
 351 0092 00BF     		.align	2
 352              	.L30:
 353 0094 0000F03F 		.word	1072693248
 354              		.cfi_endproc
ARM GAS  /var/folders/5c/srt4fy4j1pd641bjfx75k5000000gn/T//ccct1RTz.s 			page 11


 355              	.LFE268:
 356              		.cantunwind
 357              		.fnend
 359              		.section	.text.TimInterrupt1khz,"ax",%progbits
 360              		.align	1
 361              		.global	TimInterrupt1khz
 362              		.syntax unified
 363              		.thumb
 364              		.thumb_func
 366              	TimInterrupt1khz:
 367              		.fnstart
 368              	.LFB275:
   9:src/app/app.cpp **** void TimInterrupt1khz() {
 369              		.loc 1 9 25 is_stmt 1 view -0
 370              		.cfi_startproc
 371              		@ args = 0, pretend = 0, frame = 0
 372              		@ frame_needed = 0, uses_anonymous_args = 0
 373 0000 08B5     		push	{r3, lr}
 374              		.save {r3, lr}
 375              	.LCFI3:
 376              		.cfi_def_cfa_offset 8
 377              		.cfi_offset 3, -8
 378              		.cfi_offset 14, -4
  10:src/app/app.cpp ****       robot.heartBeat();
 379              		.loc 1 10 7 view .LVU74
 380              	.LVL32:
 381              	.LBB40:
 382              	.LBI40:
 125:src/unit/robot/robot.hpp ****      public:
 126:src/unit/robot/robot.hpp ****       Robot();
 127:src/unit/robot/robot.hpp **** 
 128:src/unit/robot/robot.hpp ****       // values
 129:src/unit/robot/robot.hpp ****       RobotInfo info;
 130:src/unit/robot/robot.hpp **** 
 131:src/unit/robot/robot.hpp ****       DigitalOut led1 = DigitalOut(LED1_GPIO_Port, LED1_Pin);
 132:src/unit/robot/robot.hpp ****       PwmSingleOut ledh = PwmSingleOut(&htim13, TIM_CHANNEL_1);
 133:src/unit/robot/robot.hpp **** 
 134:src/unit/robot/robot.hpp ****       PwmSingleOut motor1a = PwmSingleOut(&htim12, TIM_CHANNEL_2);
 135:src/unit/robot/robot.hpp ****       PwmSingleOut motor1b = PwmSingleOut(&htim12, TIM_CHANNEL_1);
 136:src/unit/robot/robot.hpp ****       PwmSingleOut motor2a = PwmSingleOut(&htim2, TIM_CHANNEL_3);
 137:src/unit/robot/robot.hpp ****       PwmSingleOut motor2b = PwmSingleOut(&htim2, TIM_CHANNEL_4);
 138:src/unit/robot/robot.hpp ****       PwmSingleOut motor3a = PwmSingleOut(&htim3, TIM_CHANNEL_2);
 139:src/unit/robot/robot.hpp ****       PwmSingleOut motor3b = PwmSingleOut(&htim2, TIM_CHANNEL_2);
 140:src/unit/robot/robot.hpp ****       PwmSingleOut motor4a = PwmSingleOut(&htim3, TIM_CHANNEL_1);
 141:src/unit/robot/robot.hpp ****       PwmSingleOut motor4b = PwmSingleOut(&htim3, TIM_CHANNEL_3);
 142:src/unit/robot/robot.hpp **** 
 143:src/unit/robot/robot.hpp ****       PwmSingleOut dribbler_front_a = PwmSingleOut(&htim4, TIM_CHANNEL_1);
 144:src/unit/robot/robot.hpp ****       PwmSingleOut dribbler_front_b = PwmSingleOut(&htim4, TIM_CHANNEL_2);
 145:src/unit/robot/robot.hpp ****       PwmSingleOut dribbler_back_a = PwmSingleOut(&htim2, TIM_CHANNEL_1);
 146:src/unit/robot/robot.hpp ****       PwmSingleOut dribbler_back_b = PwmSingleOut(&htim4, TIM_CHANNEL_4);
 147:src/unit/robot/robot.hpp **** 
 148:src/unit/robot/robot.hpp ****       DigitalOut kicker_charge = DigitalOut(KICKER_CHARGE_GPIO_Port, KICKER_CHARGE_Pin);
 149:src/unit/robot/robot.hpp ****       DigitalOut kicker_kick = DigitalOut(KICKER_KICK_GPIO_Port, KICKER_KICK_Pin);
 150:src/unit/robot/robot.hpp **** 
 151:src/unit/robot/robot.hpp ****       MotorDrive motor = MotorDrive(&motor1a, &motor1b, &motor2a, &motor2b, &motor3a, &motor3b, &mo
 152:src/unit/robot/robot.hpp ****       DribblerDrive dribbler_front = DribblerDrive(&dribbler_front_a, &dribbler_front_b);
 153:src/unit/robot/robot.hpp ****       DribblerDrive dribbler_back = DribblerDrive(&dribbler_back_a, &dribbler_back_b);
ARM GAS  /var/folders/5c/srt4fy4j1pd641bjfx75k5000000gn/T//ccct1RTz.s 			page 12


 154:src/unit/robot/robot.hpp ****       Kicker kicker = Kicker(&kicker_charge, &kicker_kick);
 155:src/unit/robot/robot.hpp **** 
 156:src/unit/robot/robot.hpp ****       BufferedSerial serial1 = BufferedSerial(&huart1, 128);  // imu
 157:src/unit/robot/robot.hpp ****       BufferedSerial serial2 = BufferedSerial(&huart2, 256);  // line
 158:src/unit/robot/robot.hpp ****       BufferedSerial serial3 = BufferedSerial(&huart3, 128);  // ui
 159:src/unit/robot/robot.hpp ****       BufferedSerial serial4 = BufferedSerial(&huart4, 256);  // cam
 160:src/unit/robot/robot.hpp ****       BufferedSerial serial5 = BufferedSerial(&huart5, 256);  // eps32
 161:src/unit/robot/robot.hpp **** 
 162:src/unit/robot/robot.hpp ****       void HardwareInit();
 163:src/unit/robot/robot.hpp ****       void GetSensors();
 164:src/unit/robot/robot.hpp **** 
 165:src/unit/robot/robot.hpp ****       void ImuUart();
 166:src/unit/robot/robot.hpp ****       void LineUart();
 167:src/unit/robot/robot.hpp ****       void UiUart();
 168:src/unit/robot/robot.hpp ****       void CamUart();
 169:src/unit/robot/robot.hpp ****       void Esp32Uart();
 170:src/unit/robot/robot.hpp **** 
 171:src/unit/robot/robot.hpp ****       // STMの動作確認用
 172:src/unit/robot/robot.hpp ****       inline __attribute__((always_inline)) void heartBeat() {
 383              		.loc 2 172 50 view .LVU75
 384              	.LBB41:
 173:src/unit/robot/robot.hpp ****             static int i = 0;
 385              		.loc 2 173 13 view .LVU76
 174:src/unit/robot/robot.hpp ****             i++;
 386              		.loc 2 174 13 view .LVU77
 387              		.loc 2 174 14 is_stmt 0 view .LVU78
 388 0002 1F4A     		ldr	r2, .L39
 389 0004 1368     		ldr	r3, [r2]
 390 0006 0133     		adds	r3, r3, #1
 391 0008 1360     		str	r3, [r2]
 175:src/unit/robot/robot.hpp ****             ledh = abs(MyMath::sinDeg(int(i * (360.0f / 2000.0f))));
 392              		.loc 2 175 13 is_stmt 1 view .LVU79
 393              		.loc 2 175 20 is_stmt 0 view .LVU80
 394 000a 07EE903A 		vmov	s15, r3	@ int
 395 000e F8EEE77A 		vcvt.f32.s32	s15, s15
 396 0012 9FED1C7A 		vldr.32	s14, .L39+4
 397 0016 67EE877A 		vmul.f32	s15, s15, s14
 398 001a FDEEE77A 		vcvt.s32.f32	s15, s15
 399 001e 17EE900A 		vmov	r0, s15	@ int
 400 0022 FFF7FEFF 		bl	sinDeg
 401              	.LVL33:
 402              		.loc 2 175 18 view .LVU81
 403 0026 B5EEC00A 		vcmpe.f32	s0, #0
 404 002a F1EE10FA 		vmrs	APSR_nzcv, FPSCR
 405 002e 15DD     		ble	.L37
 406              		.loc 2 175 20 view .LVU82
 407 0030 134B     		ldr	r3, .L39
 408 0032 D3ED007A 		vldr.32	s15, [r3]	@ int
 409 0036 F8EEE77A 		vcvt.f32.s32	s15, s15
 410 003a 9FED127A 		vldr.32	s14, .L39+4
 411 003e 67EE877A 		vmul.f32	s15, s15, s14
 412 0042 FDEEE77A 		vcvt.s32.f32	s15, s15
 413 0046 17EE900A 		vmov	r0, s15	@ int
 414 004a FFF7FEFF 		bl	sinDeg
 415              	.LVL34:
 416              	.L35:
 417              	.LBB42:
ARM GAS  /var/folders/5c/srt4fy4j1pd641bjfx75k5000000gn/T//ccct1RTz.s 			page 13


 418              	.LBI42:
  25:Lib/PWMSingle/PWMSingle.hpp **** 
  26:Lib/PWMSingle/PWMSingle.hpp ****       void operator=(float duty) {
 419              		.loc 5 26 12 is_stmt 1 view .LVU83
 420              	.LBB43:
  27:Lib/PWMSingle/PWMSingle.hpp ****             write(duty);
 421              		.loc 5 27 13 view .LVU84
 422              		.loc 5 27 18 is_stmt 0 view .LVU85
 423 004e 0E48     		ldr	r0, .L39+8
 424              	.LVL35:
 425              		.loc 5 27 18 view .LVU86
 426 0050 FFF7FEFF 		bl	_ZN12PwmSingleOut5writeEf
 427              	.LVL36:
 428              		.loc 5 27 18 view .LVU87
 429              	.LBE43:
 430              	.LBE42:
 431              	.LBE41:
 432              	.LBE40:
  11:src/app/app.cpp ****       robot.kicker.Control();
 433              		.loc 1 11 7 is_stmt 1 view .LVU88
  11:src/app/app.cpp ****       robot.kicker.Control();
 434              		.loc 1 11 27 is_stmt 0 view .LVU89
 435 0054 0D48     		ldr	r0, .L39+12
 436 0056 FFF7FEFF 		bl	_ZN6Kicker7ControlEv
 437              	.LVL37:
  12:src/app/app.cpp **** }
 438              		.loc 1 12 1 view .LVU90
 439 005a 08BD     		pop	{r3, pc}
 440              	.LVL38:
 441              	.L37:
 442              	.LBB45:
 443              	.LBB44:
 444              		.loc 2 175 20 view .LVU91
 445 005c 084B     		ldr	r3, .L39
 446 005e D3ED007A 		vldr.32	s15, [r3]	@ int
 447 0062 F8EEE77A 		vcvt.f32.s32	s15, s15
 448 0066 9FED077A 		vldr.32	s14, .L39+4
 449 006a 67EE877A 		vmul.f32	s15, s15, s14
 450 006e FDEEE77A 		vcvt.s32.f32	s15, s15
 451 0072 17EE900A 		vmov	r0, s15	@ int
 452 0076 FFF7FEFF 		bl	sinDeg
 453              	.LVL39:
 454              		.loc 2 175 18 view .LVU92
 455 007a B1EE400A 		vneg.f32	s0, s0
 456 007e E6E7     		b	.L35
 457              	.L40:
 458              		.align	2
 459              	.L39:
 460 0080 00000000 		.word	_ZZN5Robot9heartBeatEvE1i
 461 0084 EC51383E 		.word	1043878380
 462 0088 B0000000 		.word	robot+176
 463 008c F8100000 		.word	robot+4344
 464              	.LBE44:
 465              	.LBE45:
 466              		.cfi_endproc
 467              	.LFE275:
 468              		.fnend
ARM GAS  /var/folders/5c/srt4fy4j1pd641bjfx75k5000000gn/T//ccct1RTz.s 			page 14


 470              		.section	.text.setup,"ax",%progbits
 471              		.align	1
 472              		.global	setup
 473              		.syntax unified
 474              		.thumb
 475              		.thumb_func
 477              	setup:
 478              		.fnstart
 479              	.LFB276:
  14:src/app/app.cpp **** void setup() {
 480              		.loc 1 14 14 is_stmt 1 view -0
 481              		.cfi_startproc
 482              		@ args = 0, pretend = 0, frame = 0
 483              		@ frame_needed = 0, uses_anonymous_args = 0
 484 0000 08B5     		push	{r3, lr}
 485              		.save {r3, lr}
 486              	.LCFI4:
 487              		.cfi_def_cfa_offset 8
 488              		.cfi_offset 3, -8
 489              		.cfi_offset 14, -4
  15:src/app/app.cpp ****       robot.HardwareInit();
 490              		.loc 1 15 7 view .LVU94
  15:src/app/app.cpp ****       robot.HardwareInit();
 491              		.loc 1 15 25 is_stmt 0 view .LVU95
 492 0002 0248     		ldr	r0, .L43
 493 0004 FFF7FEFF 		bl	_ZN5Robot12HardwareInitEv
 494              	.LVL40:
  16:src/app/app.cpp **** }
 495              		.loc 1 16 1 view .LVU96
 496 0008 08BD     		pop	{r3, pc}
 497              	.L44:
 498 000a 00BF     		.align	2
 499              	.L43:
 500 000c 00000000 		.word	robot
 501              		.cfi_endproc
 502              	.LFE276:
 503              		.fnend
 505              		.section	.text.main_app,"ax",%progbits
 506              		.align	1
 507              		.global	main_app
 508              		.syntax unified
 509              		.thumb
 510              		.thumb_func
 512              	main_app:
 513              		.fnstart
 514              	.LFB277:
  18:src/app/app.cpp **** void main_app() {
 515              		.loc 1 18 17 is_stmt 1 view -0
 516              		.cfi_startproc
 517              		@ args = 0, pretend = 0, frame = 0
 518              		@ frame_needed = 0, uses_anonymous_args = 0
 519 0000 08B5     		push	{r3, lr}
 520              		.save {r3, lr}
 521              	.LCFI5:
 522              		.cfi_def_cfa_offset 8
 523              		.cfi_offset 3, -8
 524              		.cfi_offset 14, -4
ARM GAS  /var/folders/5c/srt4fy4j1pd641bjfx75k5000000gn/T//ccct1RTz.s 			page 15


 525              	.L46:
  19:src/app/app.cpp ****       while (1) {
 526              		.loc 1 19 7 discriminator 1 view .LVU98
  20:src/app/app.cpp ****             mode.MainMode();
 527              		.loc 1 20 13 discriminator 1 view .LVU99
  20:src/app/app.cpp ****             mode.MainMode();
 528              		.loc 1 20 26 is_stmt 0 discriminator 1 view .LVU100
 529 0002 0248     		ldr	r0, .L48
 530 0004 FFF7FEFF 		bl	_ZN4Mode8MainModeEv
 531              	.LVL41:
  19:src/app/app.cpp ****       while (1) {
 532              		.loc 1 19 7 is_stmt 1 discriminator 1 view .LVU101
 533 0008 FBE7     		b	.L46
 534              	.L49:
 535 000a 00BF     		.align	2
 536              	.L48:
 537 000c 00000000 		.word	mode
 538              		.cfi_endproc
 539              	.LFE277:
 540              		.fnend
 542              		.section	.text._GLOBAL__sub_I_robot,"ax",%progbits
 543              		.align	1
 544              		.syntax unified
 545              		.thumb
 546              		.thumb_func
 548              	_GLOBAL__sub_I_robot:
 549              		.fnstart
 550              	.LFB282:
 551              		.loc 1 22 1 view -0
 552              		.cfi_startproc
 553              		@ args = 0, pretend = 0, frame = 0
 554              		@ frame_needed = 0, uses_anonymous_args = 0
 555 0000 08B5     		push	{r3, lr}
 556              	.LCFI6:
 557              		.cfi_def_cfa_offset 8
 558              		.cfi_offset 3, -8
 559              		.cfi_offset 14, -4
 560              		.loc 1 22 1 is_stmt 0 view .LVU103
 561 0002 4FF6FF71 		movw	r1, #65535
 562 0006 0120     		movs	r0, #1
 563 0008 FFF7FEFF 		bl	_Z41__static_initialization_and_destruction_0ii
 564              	.LVL42:
 565 000c 08BD     		pop	{r3, pc}
 566              		.cfi_endproc
 567              	.LFE282:
 568              		.cantunwind
 569              		.fnend
 571              		.section	.init_array,"aw",%init_array
 572              		.align	2
 573 0000 00000000 		.word	_GLOBAL__sub_I_robot(target1)
 574              		.global	mode
 575              		.section	.bss.mode,"aw",%nobits
 576              		.align	2
 579              	mode:
 580 0000 00000000 		.space	12
 580      00000000 
 580      00000000 
ARM GAS  /var/folders/5c/srt4fy4j1pd641bjfx75k5000000gn/T//ccct1RTz.s 			page 16


 581              		.global	robot
 582              		.section	.bss.robot,"aw",%nobits
 583              		.align	3
 586              	robot:
 587 0000 00000000 		.space	7760
 587      00000000 
 587      00000000 
 587      00000000 
 587      00000000 
 588              		.weak	_ZZN5Robot9heartBeatEvE1i
 589              		.section	.bss._ZZN5Robot9heartBeatEvE1i,"awG",%nobits,_ZZN5Robot9heartBeatEvE1i,comdat
 590              		.align	2
 593              	_ZZN5Robot9heartBeatEvE1i:
 594 0000 00000000 		.space	4
 595              		.text
 596              	.Letext0:
 597              		.file 6 "/opt/ST/STM32CubeCLT_1.16.0/GNU-tools-for-STM32/arm-none-eabi/include/machine/_default_ty
 598              		.file 7 "/opt/ST/STM32CubeCLT_1.16.0/GNU-tools-for-STM32/arm-none-eabi/include/sys/_stdint.h"
 599              		.file 8 "Drivers/CMSIS/Device/ST/STM32F4xx/Include/stm32f446xx.h"
 600              		.file 9 "Drivers/CMSIS/Device/ST/STM32F4xx/Include/stm32f4xx.h"
 601              		.file 10 "/opt/ST/STM32CubeCLT_1.16.0/GNU-tools-for-STM32/lib/gcc/arm-none-eabi/12.3.1/include/std
 602              		.file 11 "Drivers/STM32F4xx_HAL_Driver/Inc/stm32f4xx_hal_def.h"
 603              		.file 12 "Drivers/STM32F4xx_HAL_Driver/Inc/stm32f4xx_hal_dma.h"
 604              		.file 13 "Drivers/STM32F4xx_HAL_Driver/Inc/stm32f4xx_hal_tim.h"
 605              		.file 14 "Drivers/STM32F4xx_HAL_Driver/Inc/stm32f4xx_hal_uart.h"
 606              		.file 15 "Drivers/STM32F4xx_HAL_Driver/Inc/stm32f4xx_hal.h"
 607              		.file 16 "/opt/ST/STM32CubeCLT_1.16.0/GNU-tools-for-STM32/arm-none-eabi/include/sys/_types.h"
 608              		.file 17 "/opt/ST/STM32CubeCLT_1.16.0/GNU-tools-for-STM32/arm-none-eabi/include/sys/reent.h"
 609              		.file 18 "/opt/ST/STM32CubeCLT_1.16.0/GNU-tools-for-STM32/arm-none-eabi/include/sys/lock.h"
 610              		.file 19 "/opt/ST/STM32CubeCLT_1.16.0/GNU-tools-for-STM32/arm-none-eabi/include/stdio.h"
 611              		.file 20 "Lib/DigitalInOut/DigitalInOut.hpp"
 612              		.file 21 "Lib/MovingAve/MovingAve.hpp"
 613              		.file 22 "/opt/ST/STM32CubeCLT_1.16.0/GNU-tools-for-STM32/arm-none-eabi/include/c++/12.3.1/cstdio"
 614              		.file 23 "/opt/ST/STM32CubeCLT_1.16.0/GNU-tools-for-STM32/arm-none-eabi/include/c++/12.3.1/arm-non
 615              		.file 24 "Lib/Timer/Timer.hpp"
 616              		.file 25 "src/unit/dribbler_drive/dribbler_drive.hpp"
 617              		.file 26 "src/unit/kicker/kicker.hpp"
 618              		.file 27 "Lib/pid/pid.hpp"
 619              		.file 28 "src/unit/motor_drive/motor_drive.hpp"
 620              		.file 29 "Lib/MyMath/MyMath.hpp"
ARM GAS  /var/folders/5c/srt4fy4j1pd641bjfx75k5000000gn/T//ccct1RTz.s 			page 17

