ARM GAS  /var/folders/5c/srt4fy4j1pd641bjfx75k5000000gn/T//ccNEUMKe.s 			page 1


   1              		.cpu cortex-m4
   2              		.arch armv7e-m
   3              		.fpu fpv4-sp-d16
   4              		.eabi_attribute 27, 1
   5              		.eabi_attribute 28, 1
   6              		.eabi_attribute 20, 1
   7              		.eabi_attribute 21, 1
   8              		.eabi_attribute 23, 3
   9              		.eabi_attribute 24, 1
  10              		.eabi_attribute 25, 1
  11              		.eabi_attribute 26, 1
  12              		.eabi_attribute 30, 1
  13              		.eabi_attribute 34, 1
  14              		.eabi_attribute 18, 4
  15              		.file	"motor_drive.cpp"
  16              		.text
  17              	.Ltext0:
  18              		.cfi_sections	.debug_frame
  19              		.file 1 "src/unit/motor_drive/motor_drive.cpp"
  20              		.section	.text._ZN12PwmSingleOut4initEv,"axG",%progbits,_ZN12PwmSingleOut4initEv,comdat
  21              		.align	1
  22              		.weak	_ZN12PwmSingleOut4initEv
  23              		.syntax unified
  24              		.thumb
  25              		.thumb_func
  27              	_ZN12PwmSingleOut4initEv:
  28              		.fnstart
  29              	.LVL0:
  30              	.LFB245:
  31              		.file 2 "Lib/PWMSingle/PWMSingle.hpp"
   1:Lib/PWMSingle/PWMSingle.hpp **** #ifndef __PWMSINGLE__
   2:Lib/PWMSingle/PWMSingle.hpp **** #define __PWMSINGLE__
   3:Lib/PWMSingle/PWMSingle.hpp **** 
   4:Lib/PWMSingle/PWMSingle.hpp **** #include "MyMath.hpp"
   5:Lib/PWMSingle/PWMSingle.hpp **** #include "tim.h"
   6:Lib/PWMSingle/PWMSingle.hpp **** 
   7:Lib/PWMSingle/PWMSingle.hpp **** #ifdef __cplusplus
   8:Lib/PWMSingle/PWMSingle.hpp **** extern "C" {
   9:Lib/PWMSingle/PWMSingle.hpp **** 
  10:Lib/PWMSingle/PWMSingle.hpp **** class PwmSingleOut {
  11:Lib/PWMSingle/PWMSingle.hpp ****      public:
  12:Lib/PWMSingle/PWMSingle.hpp ****       PwmSingleOut(TIM_HandleTypeDef *htim, uint32_t channel)
  13:Lib/PWMSingle/PWMSingle.hpp ****           : _htim(htim), _channel(channel), _maxValue(_htim->Init.Period) {
  14:Lib/PWMSingle/PWMSingle.hpp ****       }
  15:Lib/PWMSingle/PWMSingle.hpp **** 
  16:Lib/PWMSingle/PWMSingle.hpp ****       void init() {
  32              		.loc 2 16 12 view -0
  33              		.cfi_startproc
  34              		@ args = 0, pretend = 0, frame = 0
  35              		@ frame_needed = 0, uses_anonymous_args = 0
  36              		.loc 2 16 12 is_stmt 0 view .LVU1
  37 0000 10B5     		push	{r4, lr}
  38              		.save {r4, lr}
  39              	.LCFI0:
  40              		.cfi_def_cfa_offset 8
  41              		.cfi_offset 4, -8
  42              		.cfi_offset 14, -4
ARM GAS  /var/folders/5c/srt4fy4j1pd641bjfx75k5000000gn/T//ccNEUMKe.s 			page 2


  43 0002 0446     		mov	r4, r0
  17:Lib/PWMSingle/PWMSingle.hpp ****             HAL_TIM_PWM_Start(_htim, _channel);
  44              		.loc 2 17 13 is_stmt 1 view .LVU2
  45              		.loc 2 17 30 is_stmt 0 view .LVU3
  46 0004 4168     		ldr	r1, [r0, #4]
  47 0006 0068     		ldr	r0, [r0]
  48              	.LVL1:
  49              		.loc 2 17 30 view .LVU4
  50 0008 FFF7FEFF 		bl	HAL_TIM_PWM_Start
  51              	.LVL2:
  18:Lib/PWMSingle/PWMSingle.hpp ****             _maxValue = _htim->Init.Period;
  52              		.loc 2 18 13 is_stmt 1 view .LVU5
  53              		.loc 2 18 25 is_stmt 0 view .LVU6
  54 000c 2368     		ldr	r3, [r4]
  55              		.loc 2 18 37 view .LVU7
  56 000e DB68     		ldr	r3, [r3, #12]
  57              		.loc 2 18 23 view .LVU8
  58 0010 A360     		str	r3, [r4, #8]
  19:Lib/PWMSingle/PWMSingle.hpp ****       }
  59              		.loc 2 19 7 view .LVU9
  60 0012 10BD     		pop	{r4, pc}
  61              		.loc 2 19 7 view .LVU10
  62              		.cfi_endproc
  63              	.LFE245:
  64              		.fnend
  66              		.global	__aeabi_f2d
  67              		.global	__aeabi_ui2d
  68              		.global	__aeabi_dmul
  69              		.global	__aeabi_d2iz
  70              		.section	.text._ZN12PwmSingleOut5writeEf,"axG",%progbits,_ZN12PwmSingleOut5writeEf,comdat
  71              		.align	1
  72              		.weak	_ZN12PwmSingleOut5writeEf
  73              		.syntax unified
  74              		.thumb
  75              		.thumb_func
  77              	_ZN12PwmSingleOut5writeEf:
  78              		.fnstart
  79              	.LVL3:
  80              	.LFB246:
  20:Lib/PWMSingle/PWMSingle.hpp **** 
  21:Lib/PWMSingle/PWMSingle.hpp ****       void write(float duty) {
  81              		.loc 2 21 12 is_stmt 1 view -0
  82              		.cfi_startproc
  83              		@ args = 0, pretend = 0, frame = 0
  84              		@ frame_needed = 0, uses_anonymous_args = 0
  85              		.loc 2 21 12 is_stmt 0 view .LVU12
  86 0000 D0B5     		push	{r4, r6, r7, lr}
  87              	.LCFI1:
  88              		.cfi_def_cfa_offset 16
  89              		.cfi_offset 4, -16
  90              		.cfi_offset 6, -12
  91              		.cfi_offset 7, -8
  92              		.cfi_offset 14, -4
  93 0002 0446     		mov	r4, r0
  22:Lib/PWMSingle/PWMSingle.hpp ****             duty = (int)(Constrain(duty, 0.0, 1.0) * _maxValue);
  94              		.loc 2 22 13 is_stmt 1 view .LVU13
  95              		.loc 2 22 26 is_stmt 0 view .LVU14
ARM GAS  /var/folders/5c/srt4fy4j1pd641bjfx75k5000000gn/T//ccNEUMKe.s 			page 3


  96 0004 B5EEC00A 		vcmpe.f32	s0, #0
  97 0008 F1EE10FA 		vmrs	APSR_nzcv, FPSCR
  98 000c 10D4     		bmi	.L9
  99              		.loc 2 22 26 discriminator 2 view .LVU15
 100 000e F7EE007A 		vmov.f32	s15, #1.0e+0
 101 0012 B4EEE70A 		vcmpe.f32	s0, s15
 102 0016 F1EE10FA 		vmrs	APSR_nzcv, FPSCR
 103 001a 02DD     		ble	.L12
 104              		.loc 2 22 26 view .LVU16
 105 001c 0026     		movs	r6, #0
 106 001e 1D4F     		ldr	r7, .L15
 107 0020 08E0     		b	.L4
 108              	.L12:
 109              		.loc 2 22 26 discriminator 5 view .LVU17
 110 0022 10EE100A 		vmov	r0, s0
 111              	.LVL4:
 112              		.loc 2 22 26 discriminator 5 view .LVU18
 113 0026 FFF7FEFF 		bl	__aeabi_f2d
 114              	.LVL5:
 115              		.loc 2 22 26 discriminator 5 view .LVU19
 116 002a 0646     		mov	r6, r0
 117 002c 0F46     		mov	r7, r1
 118 002e 01E0     		b	.L4
 119              	.LVL6:
 120              	.L9:
 121              		.loc 2 22 26 view .LVU20
 122 0030 0026     		movs	r6, #0
 123 0032 0027     		movs	r7, #0
 124              	.LVL7:
 125              	.L4:
 126              		.loc 2 22 52 discriminator 8 view .LVU21
 127 0034 A068     		ldr	r0, [r4, #8]
 128 0036 FFF7FEFF 		bl	__aeabi_ui2d
 129              	.LVL8:
 130 003a 3246     		mov	r2, r6
 131 003c 3B46     		mov	r3, r7
 132 003e FFF7FEFF 		bl	__aeabi_dmul
 133              	.LVL9:
 134              		.loc 2 22 20 discriminator 8 view .LVU22
 135 0042 FFF7FEFF 		bl	__aeabi_d2iz
 136              	.LVL10:
 137 0046 07EE900A 		vmov	s15, r0	@ int
 138              		.loc 2 22 18 discriminator 8 view .LVU23
 139 004a F8EEE77A 		vcvt.f32.s32	s15, s15
 140              	.LVL11:
  23:Lib/PWMSingle/PWMSingle.hpp ****             __HAL_TIM_SET_COMPARE(_htim, _channel, duty);
 141              		.loc 2 23 13 is_stmt 1 discriminator 8 view .LVU24
 142 004e 6368     		ldr	r3, [r4, #4]
 143 0050 33B9     		cbnz	r3, .L5
 144              		.loc 2 23 13 is_stmt 0 discriminator 1 view .LVU25
 145 0052 2368     		ldr	r3, [r4]
 146 0054 1B68     		ldr	r3, [r3]
 147 0056 FCEEE77A 		vcvt.u32.f32	s15, s15
 148              	.LVL12:
 149              		.loc 2 23 13 discriminator 1 view .LVU26
 150 005a C3ED0D7A 		vstr.32	s15, [r3, #52]	@ int
 151              	.L3:
ARM GAS  /var/folders/5c/srt4fy4j1pd641bjfx75k5000000gn/T//ccNEUMKe.s 			page 4


  24:Lib/PWMSingle/PWMSingle.hpp ****       }
 152              		.loc 2 24 7 view .LVU27
 153 005e D0BD     		pop	{r4, r6, r7, pc}
 154              	.LVL13:
 155              	.L5:
  23:Lib/PWMSingle/PWMSingle.hpp ****             __HAL_TIM_SET_COMPARE(_htim, _channel, duty);
 156              		.loc 2 23 13 discriminator 2 view .LVU28
 157 0060 042B     		cmp	r3, #4
 158 0062 08D0     		beq	.L13
  23:Lib/PWMSingle/PWMSingle.hpp ****             __HAL_TIM_SET_COMPARE(_htim, _channel, duty);
 159              		.loc 2 23 13 discriminator 4 view .LVU29
 160 0064 082B     		cmp	r3, #8
 161 0066 0DD0     		beq	.L14
  23:Lib/PWMSingle/PWMSingle.hpp ****             __HAL_TIM_SET_COMPARE(_htim, _channel, duty);
 162              		.loc 2 23 13 discriminator 6 view .LVU30
 163 0068 2368     		ldr	r3, [r4]
 164 006a 1B68     		ldr	r3, [r3]
 165 006c FCEEE77A 		vcvt.u32.f32	s15, s15
 166              	.LVL14:
  23:Lib/PWMSingle/PWMSingle.hpp ****             __HAL_TIM_SET_COMPARE(_htim, _channel, duty);
 167              		.loc 2 23 13 discriminator 6 view .LVU31
 168 0070 C3ED107A 		vstr.32	s15, [r3, #64]	@ int
 169              		.loc 2 24 7 discriminator 6 view .LVU32
 170 0074 F3E7     		b	.L3
 171              	.LVL15:
 172              	.L13:
  23:Lib/PWMSingle/PWMSingle.hpp ****             __HAL_TIM_SET_COMPARE(_htim, _channel, duty);
 173              		.loc 2 23 13 discriminator 3 view .LVU33
 174 0076 2368     		ldr	r3, [r4]
 175 0078 1B68     		ldr	r3, [r3]
 176 007a FCEEE77A 		vcvt.u32.f32	s15, s15
 177              	.LVL16:
  23:Lib/PWMSingle/PWMSingle.hpp ****             __HAL_TIM_SET_COMPARE(_htim, _channel, duty);
 178              		.loc 2 23 13 discriminator 3 view .LVU34
 179 007e C3ED0E7A 		vstr.32	s15, [r3, #56]	@ int
 180 0082 ECE7     		b	.L3
 181              	.LVL17:
 182              	.L14:
  23:Lib/PWMSingle/PWMSingle.hpp ****             __HAL_TIM_SET_COMPARE(_htim, _channel, duty);
 183              		.loc 2 23 13 discriminator 5 view .LVU35
 184 0084 2368     		ldr	r3, [r4]
 185 0086 1B68     		ldr	r3, [r3]
 186 0088 FCEEE77A 		vcvt.u32.f32	s15, s15
 187              	.LVL18:
  23:Lib/PWMSingle/PWMSingle.hpp ****             __HAL_TIM_SET_COMPARE(_htim, _channel, duty);
 188              		.loc 2 23 13 discriminator 5 view .LVU36
 189 008c C3ED0F7A 		vstr.32	s15, [r3, #60]	@ int
 190 0090 E5E7     		b	.L3
 191              	.L16:
 192 0092 00BF     		.align	2
 193              	.L15:
 194 0094 0000F03F 		.word	1072693248
 195              		.cfi_endproc
 196              	.LFE246:
 197              		.cantunwind
 198              		.fnend
 200              		.section	.text._ZN12PwmSingleOut5soundEtt,"axG",%progbits,_ZN12PwmSingleOut5soundEtt,comdat
ARM GAS  /var/folders/5c/srt4fy4j1pd641bjfx75k5000000gn/T//ccNEUMKe.s 			page 5


 201              		.align	1
 202              		.weak	_ZN12PwmSingleOut5soundEtt
 203              		.syntax unified
 204              		.thumb
 205              		.thumb_func
 207              	_ZN12PwmSingleOut5soundEtt:
 208              		.fnstart
 209              	.LVL19:
 210              	.LFB248:
  25:Lib/PWMSingle/PWMSingle.hpp **** 
  26:Lib/PWMSingle/PWMSingle.hpp ****       void operator=(float duty) {
  27:Lib/PWMSingle/PWMSingle.hpp ****             write(duty);
  28:Lib/PWMSingle/PWMSingle.hpp ****       }
  29:Lib/PWMSingle/PWMSingle.hpp **** 
  30:Lib/PWMSingle/PWMSingle.hpp ****       void sound(uint16_t period, uint16_t time) {
 211              		.loc 2 30 12 is_stmt 1 view -0
 212              		.cfi_startproc
 213              		@ args = 0, pretend = 0, frame = 0
 214              		@ frame_needed = 0, uses_anonymous_args = 0
 215              		.loc 2 30 12 is_stmt 0 view .LVU38
 216 0000 2DE9F041 		push	{r4, r5, r6, r7, r8, lr}
 217              		.save {r4, r5, r6, r7, r8, lr}
 218              	.LCFI2:
 219              		.cfi_def_cfa_offset 24
 220              		.cfi_offset 4, -24
 221              		.cfi_offset 5, -20
 222              		.cfi_offset 6, -16
 223              		.cfi_offset 7, -12
 224              		.cfi_offset 8, -8
 225              		.cfi_offset 14, -4
 226 0004 0446     		mov	r4, r0
 227 0006 1546     		mov	r5, r2
  31:Lib/PWMSingle/PWMSingle.hpp ****             // 周波数変更
  32:Lib/PWMSingle/PWMSingle.hpp ****             int default_prescaler = _htim->Init.Prescaler;
 228              		.loc 2 32 13 is_stmt 1 view .LVU39
 229              		.loc 2 32 37 is_stmt 0 view .LVU40
 230 0008 0368     		ldr	r3, [r0]
 231              		.loc 2 32 49 view .LVU41
 232 000a 5F68     		ldr	r7, [r3, #4]
 233              	.LVL20:
  33:Lib/PWMSingle/PWMSingle.hpp ****             int default_period = _htim->Init.Period;
 234              		.loc 2 33 13 is_stmt 1 view .LVU42
 235              		.loc 2 33 46 is_stmt 0 view .LVU43
 236 000c DE68     		ldr	r6, [r3, #12]
 237              	.LVL21:
  34:Lib/PWMSingle/PWMSingle.hpp ****             _htim->Init.Prescaler = 9;
 238              		.loc 2 34 13 is_stmt 1 view .LVU44
 239              		.loc 2 34 35 is_stmt 0 view .LVU45
 240 000e 0922     		movs	r2, #9
 241              	.LVL22:
 242              		.loc 2 34 35 view .LVU46
 243 0010 5A60     		str	r2, [r3, #4]
  35:Lib/PWMSingle/PWMSingle.hpp ****             _htim->Init.Period = (SystemCoreClock / (period * (_htim->Init.Prescaler + 1))) - 1;
 244              		.loc 2 35 13 is_stmt 1 view .LVU47
 245              		.loc 2 35 64 is_stmt 0 view .LVU48
 246 0012 0268     		ldr	r2, [r0]
 247              		.loc 2 35 76 view .LVU49
ARM GAS  /var/folders/5c/srt4fy4j1pd641bjfx75k5000000gn/T//ccNEUMKe.s 			page 6


 248 0014 5368     		ldr	r3, [r2, #4]
 249              		.loc 2 35 61 view .LVU50
 250 0016 03FB0111 		mla	r1, r3, r1, r1
 251              	.LVL23:
 252              		.loc 2 35 51 view .LVU51
 253 001a 374B     		ldr	r3, .L35+8
 254 001c 1B68     		ldr	r3, [r3]
 255 001e B3FBF1F3 		udiv	r3, r3, r1
 256              		.loc 2 35 93 view .LVU52
 257 0022 013B     		subs	r3, r3, #1
 258              		.loc 2 35 32 view .LVU53
 259 0024 D360     		str	r3, [r2, #12]
  36:Lib/PWMSingle/PWMSingle.hpp ****             if (HAL_TIM_Base_Init(_htim) != HAL_OK) {
 260              		.loc 2 36 13 is_stmt 1 view .LVU54
 261              		.loc 2 36 34 is_stmt 0 view .LVU55
 262 0026 0068     		ldr	r0, [r0]
 263              	.LVL24:
 264              		.loc 2 36 34 view .LVU56
 265 0028 FFF7FEFF 		bl	HAL_TIM_Base_Init
 266              	.LVL25:
 267              		.loc 2 36 13 view .LVU57
 268 002c 58BB     		cbnz	r0, .L29
 269              	.L18:
  37:Lib/PWMSingle/PWMSingle.hpp ****                   Error_Handler();
  38:Lib/PWMSingle/PWMSingle.hpp ****             }
  39:Lib/PWMSingle/PWMSingle.hpp **** 
  40:Lib/PWMSingle/PWMSingle.hpp ****             float duty = (int)(0.1 * _htim->Init.Period);  // duty比を0.5にする
 270              		.loc 2 40 13 is_stmt 1 view .LVU58
 271              		.loc 2 40 38 is_stmt 0 view .LVU59
 272 002e D4F80080 		ldr	r8, [r4]
 273              		.loc 2 40 36 view .LVU60
 274 0032 D8F80C00 		ldr	r0, [r8, #12]
 275 0036 FFF7FEFF 		bl	__aeabi_ui2d
 276              	.LVL26:
 277 003a 2DA3     		adr	r3, .L35
 278 003c D3E90023 		ldrd	r2, [r3]
 279 0040 FFF7FEFF 		bl	__aeabi_dmul
 280              	.LVL27:
 281              		.loc 2 40 26 view .LVU61
 282 0044 FFF7FEFF 		bl	__aeabi_d2iz
 283              	.LVL28:
 284 0048 07EE900A 		vmov	s15, r0	@ int
 285              		.loc 2 40 19 view .LVU62
 286 004c F8EEE77A 		vcvt.f32.s32	s15, s15
 287              	.LVL29:
  41:Lib/PWMSingle/PWMSingle.hpp **** 
  42:Lib/PWMSingle/PWMSingle.hpp ****             // 出力
  43:Lib/PWMSingle/PWMSingle.hpp ****             __HAL_TIM_SET_COMPARE(_htim, _channel, duty);
 288              		.loc 2 43 13 is_stmt 1 view .LVU63
 289 0050 6368     		ldr	r3, [r4, #4]
 290 0052 DBB9     		cbnz	r3, .L19
 291              		.loc 2 43 13 is_stmt 0 discriminator 1 view .LVU64
 292 0054 D8F80030 		ldr	r3, [r8]
 293 0058 FCEEE77A 		vcvt.u32.f32	s15, s15
 294              	.LVL30:
 295              		.loc 2 43 13 discriminator 1 view .LVU65
 296 005c C3ED0D7A 		vstr.32	s15, [r3, #52]	@ int
ARM GAS  /var/folders/5c/srt4fy4j1pd641bjfx75k5000000gn/T//ccNEUMKe.s 			page 7


 297              	.L20:
  44:Lib/PWMSingle/PWMSingle.hpp ****             HAL_Delay(time);
 298              		.loc 2 44 13 is_stmt 1 view .LVU66
 299              		.loc 2 44 22 is_stmt 0 view .LVU67
 300 0060 2846     		mov	r0, r5
 301              	.LVL31:
 302              		.loc 2 44 22 view .LVU68
 303 0062 FFF7FEFF 		bl	HAL_Delay
 304              	.LVL32:
  45:Lib/PWMSingle/PWMSingle.hpp ****             __HAL_TIM_SET_COMPARE(_htim, _channel, 0);
 305              		.loc 2 45 13 is_stmt 1 view .LVU69
 306 0066 6368     		ldr	r3, [r4, #4]
 307 0068 4BBB     		cbnz	r3, .L23
 308              		.loc 2 45 13 is_stmt 0 discriminator 1 view .LVU70
 309 006a 2368     		ldr	r3, [r4]
 310 006c 1B68     		ldr	r3, [r3]
 311 006e 0022     		movs	r2, #0
 312 0070 5A63     		str	r2, [r3, #52]
 313              	.L24:
  46:Lib/PWMSingle/PWMSingle.hpp ****             _htim->Init.Prescaler = default_prescaler;
 314              		.loc 2 46 13 is_stmt 1 view .LVU71
 315 0072 2368     		ldr	r3, [r4]
 316              		.loc 2 46 35 is_stmt 0 view .LVU72
 317 0074 5F60     		str	r7, [r3, #4]
  47:Lib/PWMSingle/PWMSingle.hpp ****             _htim->Init.Period = default_period;
 318              		.loc 2 47 13 is_stmt 1 view .LVU73
 319 0076 2368     		ldr	r3, [r4]
 320              		.loc 2 47 32 is_stmt 0 view .LVU74
 321 0078 DE60     		str	r6, [r3, #12]
  48:Lib/PWMSingle/PWMSingle.hpp ****             if (HAL_TIM_Base_Init(_htim) != HAL_OK) {
 322              		.loc 2 48 13 is_stmt 1 view .LVU75
 323              		.loc 2 48 34 is_stmt 0 view .LVU76
 324 007a 2068     		ldr	r0, [r4]
 325 007c FFF7FEFF 		bl	HAL_TIM_Base_Init
 326              	.LVL33:
 327              		.loc 2 48 13 view .LVU77
 328 0080 80BB     		cbnz	r0, .L30
 329              	.L17:
  49:Lib/PWMSingle/PWMSingle.hpp ****                   Error_Handler();
  50:Lib/PWMSingle/PWMSingle.hpp ****             }
  51:Lib/PWMSingle/PWMSingle.hpp ****       }
 330              		.loc 2 51 7 view .LVU78
 331 0082 BDE8F081 		pop	{r4, r5, r6, r7, r8, pc}
 332              	.LVL34:
 333              	.L29:
  37:Lib/PWMSingle/PWMSingle.hpp ****             }
 334              		.loc 2 37 19 is_stmt 1 view .LVU79
  37:Lib/PWMSingle/PWMSingle.hpp ****             }
 335              		.loc 2 37 32 is_stmt 0 view .LVU80
 336 0086 FFF7FEFF 		bl	Error_Handler
 337              	.LVL35:
 338 008a D0E7     		b	.L18
 339              	.LVL36:
 340              	.L19:
  43:Lib/PWMSingle/PWMSingle.hpp ****             HAL_Delay(time);
 341              		.loc 2 43 13 discriminator 2 view .LVU81
 342 008c 042B     		cmp	r3, #4
ARM GAS  /var/folders/5c/srt4fy4j1pd641bjfx75k5000000gn/T//ccNEUMKe.s 			page 8


 343 008e 08D0     		beq	.L31
  43:Lib/PWMSingle/PWMSingle.hpp ****             HAL_Delay(time);
 344              		.loc 2 43 13 discriminator 4 view .LVU82
 345 0090 082B     		cmp	r3, #8
 346 0092 0DD0     		beq	.L32
  43:Lib/PWMSingle/PWMSingle.hpp ****             HAL_Delay(time);
 347              		.loc 2 43 13 discriminator 6 view .LVU83
 348 0094 D8F80030 		ldr	r3, [r8]
 349 0098 FCEEE77A 		vcvt.u32.f32	s15, s15
 350              	.LVL37:
  43:Lib/PWMSingle/PWMSingle.hpp ****             HAL_Delay(time);
 351              		.loc 2 43 13 discriminator 6 view .LVU84
 352 009c C3ED107A 		vstr.32	s15, [r3, #64]	@ int
 353 00a0 DEE7     		b	.L20
 354              	.LVL38:
 355              	.L31:
  43:Lib/PWMSingle/PWMSingle.hpp ****             HAL_Delay(time);
 356              		.loc 2 43 13 discriminator 3 view .LVU85
 357 00a2 D8F80030 		ldr	r3, [r8]
 358 00a6 FCEEE77A 		vcvt.u32.f32	s15, s15
 359              	.LVL39:
  43:Lib/PWMSingle/PWMSingle.hpp ****             HAL_Delay(time);
 360              		.loc 2 43 13 discriminator 3 view .LVU86
 361 00aa C3ED0E7A 		vstr.32	s15, [r3, #56]	@ int
 362 00ae D7E7     		b	.L20
 363              	.LVL40:
 364              	.L32:
  43:Lib/PWMSingle/PWMSingle.hpp ****             HAL_Delay(time);
 365              		.loc 2 43 13 discriminator 5 view .LVU87
 366 00b0 D8F80030 		ldr	r3, [r8]
 367 00b4 FCEEE77A 		vcvt.u32.f32	s15, s15
 368              	.LVL41:
  43:Lib/PWMSingle/PWMSingle.hpp ****             HAL_Delay(time);
 369              		.loc 2 43 13 discriminator 5 view .LVU88
 370 00b8 C3ED0F7A 		vstr.32	s15, [r3, #60]	@ int
 371 00bc D0E7     		b	.L20
 372              	.LVL42:
 373              	.L23:
  45:Lib/PWMSingle/PWMSingle.hpp ****             _htim->Init.Prescaler = default_prescaler;
 374              		.loc 2 45 13 discriminator 2 view .LVU89
 375 00be 042B     		cmp	r3, #4
 376 00c0 06D0     		beq	.L33
  45:Lib/PWMSingle/PWMSingle.hpp ****             _htim->Init.Prescaler = default_prescaler;
 377              		.loc 2 45 13 discriminator 4 view .LVU90
 378 00c2 082B     		cmp	r3, #8
 379 00c4 09D0     		beq	.L34
  45:Lib/PWMSingle/PWMSingle.hpp ****             _htim->Init.Prescaler = default_prescaler;
 380              		.loc 2 45 13 discriminator 6 view .LVU91
 381 00c6 2368     		ldr	r3, [r4]
 382 00c8 1B68     		ldr	r3, [r3]
 383 00ca 0022     		movs	r2, #0
 384 00cc 1A64     		str	r2, [r3, #64]
 385 00ce D0E7     		b	.L24
 386              	.L33:
  45:Lib/PWMSingle/PWMSingle.hpp ****             _htim->Init.Prescaler = default_prescaler;
 387              		.loc 2 45 13 discriminator 3 view .LVU92
 388 00d0 2368     		ldr	r3, [r4]
ARM GAS  /var/folders/5c/srt4fy4j1pd641bjfx75k5000000gn/T//ccNEUMKe.s 			page 9


 389 00d2 1B68     		ldr	r3, [r3]
 390 00d4 0022     		movs	r2, #0
 391 00d6 9A63     		str	r2, [r3, #56]
 392 00d8 CBE7     		b	.L24
 393              	.L34:
  45:Lib/PWMSingle/PWMSingle.hpp ****             _htim->Init.Prescaler = default_prescaler;
 394              		.loc 2 45 13 discriminator 5 view .LVU93
 395 00da 2368     		ldr	r3, [r4]
 396 00dc 1B68     		ldr	r3, [r3]
 397 00de 0022     		movs	r2, #0
 398 00e0 DA63     		str	r2, [r3, #60]
 399 00e2 C6E7     		b	.L24
 400              	.L30:
  49:Lib/PWMSingle/PWMSingle.hpp ****             }
 401              		.loc 2 49 19 is_stmt 1 view .LVU94
  49:Lib/PWMSingle/PWMSingle.hpp ****             }
 402              		.loc 2 49 32 is_stmt 0 view .LVU95
 403 00e4 FFF7FEFF 		bl	Error_Handler
 404              	.LVL43:
 405              		.loc 2 51 7 view .LVU96
 406 00e8 CBE7     		b	.L17
 407              	.L36:
 408 00ea 00BFAFF3 		.align	3
 408      0080
 409              	.L35:
 410 00f0 9A999999 		.word	-1717986918
 411 00f4 9999B93F 		.word	1069128089
 412 00f8 00000000 		.word	SystemCoreClock
 413              		.cfi_endproc
 414              	.LFE248:
 415              		.fnend
 417              		.section	.text._ZN10MotorDriveC2EP12PwmSingleOutS1_S1_S1_S1_S1_S1_S1_PsPf,"ax",%progbits
 418              		.align	1
 419              		.global	_ZN10MotorDriveC2EP12PwmSingleOutS1_S1_S1_S1_S1_S1_S1_PsPf
 420              		.syntax unified
 421              		.thumb
 422              		.thumb_func
 424              	_ZN10MotorDriveC2EP12PwmSingleOutS1_S1_S1_S1_S1_S1_S1_PsPf:
 425              		.fnstart
 426              	.LVL44:
 427              	.LFB250:
   1:src/unit/motor_drive/motor_drive.cpp **** #include "motor_drive.hpp"
   2:src/unit/motor_drive/motor_drive.cpp **** 
   3:src/unit/motor_drive/motor_drive.cpp **** MotorDrive::MotorDrive(PwmSingleOut *motor1a, PwmSingleOut *motor1b,
 428              		.loc 1 3 1 is_stmt 1 view -0
 429              		.cfi_startproc
 430              		@ args = 28, pretend = 0, frame = 0
 431              		@ frame_needed = 0, uses_anonymous_args = 0
 432              		.loc 1 3 1 is_stmt 0 view .LVU98
 433 0000 F8B5     		push	{r3, r4, r5, r6, r7, lr}
 434              		.save {r3, r4, r5, r6, r7, lr}
 435              	.LCFI3:
 436              		.cfi_def_cfa_offset 24
 437              		.cfi_offset 3, -24
 438              		.cfi_offset 4, -20
 439              		.cfi_offset 5, -16
 440              		.cfi_offset 6, -12
ARM GAS  /var/folders/5c/srt4fy4j1pd641bjfx75k5000000gn/T//ccNEUMKe.s 			page 10


 441              		.cfi_offset 7, -8
 442              		.cfi_offset 14, -4
 443 0002 0646     		mov	r6, r0
 444              	.LBB2:
   4:src/unit/motor_drive/motor_drive.cpp ****                        PwmSingleOut *motor2a, PwmSingleOut *motor2b,
   5:src/unit/motor_drive/motor_drive.cpp ****                        PwmSingleOut *motor3a, PwmSingleOut *motor3b,
   6:src/unit/motor_drive/motor_drive.cpp ****                        PwmSingleOut *motor4a, PwmSingleOut *motor4b,
   7:src/unit/motor_drive/motor_drive.cpp ****                        int16_t *yaw, float *motor_abs_rad_s)
   8:src/unit/motor_drive/motor_drive.cpp ****     : motor1a_(motor1a), motor1b_(motor1b), motor2a_(motor2a), motor2b_(motor2b), motor3a_(motor3a)
 445              		.loc 1 8 7 view .LVU99
 446 0004 0161     		str	r1, [r0, #16]
 447              		.loc 1 8 26 view .LVU100
 448 0006 4261     		str	r2, [r0, #20]
 449              		.loc 1 8 45 view .LVU101
 450 0008 8361     		str	r3, [r0, #24]
 451              		.loc 1 8 64 view .LVU102
 452 000a 069B     		ldr	r3, [sp, #24]
 453              	.LVL45:
 454              		.loc 1 8 64 view .LVU103
 455 000c C361     		str	r3, [r0, #28]
 456              		.loc 1 8 83 view .LVU104
 457 000e 079B     		ldr	r3, [sp, #28]
 458 0010 0362     		str	r3, [r0, #32]
 459              		.loc 1 8 102 view .LVU105
 460 0012 089B     		ldr	r3, [sp, #32]
 461 0014 4362     		str	r3, [r0, #36]
 462              		.loc 1 8 121 view .LVU106
 463 0016 099B     		ldr	r3, [sp, #36]
 464 0018 8362     		str	r3, [r0, #40]
 465              		.loc 1 8 140 view .LVU107
 466 001a 0A9B     		ldr	r3, [sp, #40]
 467 001c C362     		str	r3, [r0, #44]
 468              		.loc 1 8 156 view .LVU108
 469 001e 00F55165 		add	r5, r0, #3344
 470 0022 0324     		movs	r4, #3
 471 0024 04E0     		b	.L38
 472              	.LVL46:
 473              	.L39:
 474              		.loc 1 8 156 discriminator 3 view .LVU109
 475 0026 2846     		mov	r0, r5
 476 0028 FFF7FEFF 		bl	_ZN3PIDC1Ev
 477              	.LVL47:
 478 002c 013C     		subs	r4, r4, #1
 479 002e 6835     		adds	r5, r5, #104
 480              	.L38:
 481              		.loc 1 8 156 is_stmt 1 discriminator 1 view .LVU110
 482 0030 002C     		cmp	r4, #0
 483 0032 F8DA     		bge	.L39
 484              		.loc 1 8 156 is_stmt 0 discriminator 4 view .LVU111
 485 0034 06F56B67 		add	r7, r6, #3760
 486 0038 3846     		mov	r0, r7
 487 003a FFF7FEFF 		bl	_ZN3PIDC1Ev
 488              	.LVL48:
 489 003e 06F57360 		add	r0, r6, #3888
 490 0042 FFF7FEFF 		bl	_ZN5TimerC1Ev
 491              	.LVL49:
 492              	.LBB3:
ARM GAS  /var/folders/5c/srt4fy4j1pd641bjfx75k5000000gn/T//ccNEUMKe.s 			page 11


   9:src/unit/motor_drive/motor_drive.cpp ****       this->yaw_ = yaw;
 493              		.loc 1 9 7 is_stmt 1 discriminator 4 view .LVU112
 494              		.loc 1 9 18 is_stmt 0 discriminator 4 view .LVU113
 495 0046 0B9B     		ldr	r3, [sp, #44]
 496 0048 C6F8183F 		str	r3, [r6, #3864]
  10:src/unit/motor_drive/motor_drive.cpp ****       this->motor_abs_rad_s_ = motor_abs_rad_s;
 497              		.loc 1 10 7 is_stmt 1 discriminator 4 view .LVU114
 498              		.loc 1 10 30 is_stmt 0 discriminator 4 view .LVU115
 499 004c 0C9B     		ldr	r3, [sp, #48]
 500 004e C6F81C3F 		str	r3, [r6, #3868]
  11:src/unit/motor_drive/motor_drive.cpp ****       for (uint8_t i = 0; i < MOTOR_QTY; i++) {
 501              		.loc 1 11 7 is_stmt 1 discriminator 4 view .LVU116
 502              	.LVL50:
 503              	.LBB4:
 504              		.loc 1 11 20 is_stmt 0 discriminator 4 view .LVU117
 505 0052 0025     		movs	r5, #0
 506              		.loc 1 11 7 discriminator 4 view .LVU118
 507 0054 29E0     		b	.L40
 508              	.LVL51:
 509              	.L41:
  12:src/unit/motor_drive/motor_drive.cpp ****             motor_ave[i].SetLength(MOVING_AVE_NUM);
 510              		.loc 1 12 13 is_stmt 1 discriminator 3 view .LVU119
 511              		.loc 1 12 35 is_stmt 0 discriminator 3 view .LVU120
 512 0056 4FF44E70 		mov	r0, #824
 513 005a 05FB00F0 		mul	r0, r5, r0
 514 005e 3030     		adds	r0, r0, #48
 515 0060 0521     		movs	r1, #5
 516 0062 3044     		add	r0, r0, r6
 517 0064 FFF7FEFF 		bl	_ZN9MovingAve9SetLengthEh
 518              	.LVL52:
  13:src/unit/motor_drive/motor_drive.cpp ****             motor_pid[i].SetGain(50, 150, 0.25);
 519              		.loc 1 13 13 is_stmt 1 discriminator 3 view .LVU121
 520              		.loc 1 13 33 is_stmt 0 discriminator 3 view .LVU122
 521 0068 6824     		movs	r4, #104
 522 006a 05FB04F4 		mul	r4, r5, r4
 523 006e 04F55164 		add	r4, r4, #3344
 524 0072 3444     		add	r4, r4, r6
 525 0074 B5EE001A 		vmov.f32	s2, #2.5e-1
 526 0078 DFED230A 		vldr.32	s1, .L43+32
 527 007c 9FED230A 		vldr.32	s0, .L43+36
 528 0080 2046     		mov	r0, r4
 529 0082 FFF7FEFF 		bl	_ZN3PID7SetGainEfff
 530              	.LVL53:
  14:src/unit/motor_drive/motor_drive.cpp ****             motor_pid[i].SetLimit(MIN_POWER, MAX_POWER);
 531              		.loc 1 14 13 is_stmt 1 discriminator 3 view .LVU123
 532              		.loc 1 14 34 is_stmt 0 discriminator 3 view .LVU124
 533 0086 9FED181B 		vldr.64	d1, .L43
 534 008a 9FED190B 		vldr.64	d0, .L43+8
 535 008e 2046     		mov	r0, r4
 536 0090 FFF7FEFF 		bl	_ZN3PID8SetLimitEdd
 537              	.LVL54:
  15:src/unit/motor_drive/motor_drive.cpp ****             motor_pid[i].SetSamplingFreq(500);
 538              		.loc 1 15 13 is_stmt 1 discriminator 3 view .LVU125
 539              		.loc 1 15 41 is_stmt 0 discriminator 3 view .LVU126
 540 0094 4FF4FA71 		mov	r1, #500
 541 0098 2046     		mov	r0, r4
 542 009a FFF7FEFF 		bl	_ZN3PID15SetSamplingFreqEt
ARM GAS  /var/folders/5c/srt4fy4j1pd641bjfx75k5000000gn/T//ccNEUMKe.s 			page 12


 543              	.LVL55:
  16:src/unit/motor_drive/motor_drive.cpp ****             motor_pid[i].SetType(1);
 544              		.loc 1 16 13 is_stmt 1 discriminator 3 view .LVU127
 545              		.loc 1 16 33 is_stmt 0 discriminator 3 view .LVU128
 546 009e 0121     		movs	r1, #1
 547 00a0 2046     		mov	r0, r4
 548 00a2 FFF7FEFF 		bl	_ZN3PID7SetTypeEh
 549              	.LVL56:
  11:src/unit/motor_drive/motor_drive.cpp ****             motor_ave[i].SetLength(MOVING_AVE_NUM);
 550              		.loc 1 11 7 is_stmt 1 discriminator 3 view .LVU129
 551 00a6 0135     		adds	r5, r5, #1
 552              	.LVL57:
  11:src/unit/motor_drive/motor_drive.cpp ****             motor_ave[i].SetLength(MOVING_AVE_NUM);
 553              		.loc 1 11 7 is_stmt 0 discriminator 3 view .LVU130
 554 00a8 EDB2     		uxtb	r5, r5
 555              	.LVL58:
 556              	.L40:
  11:src/unit/motor_drive/motor_drive.cpp ****             motor_ave[i].SetLength(MOVING_AVE_NUM);
 557              		.loc 1 11 29 is_stmt 1 discriminator 1 view .LVU131
 558 00aa 032D     		cmp	r5, #3
 559 00ac D3D9     		bls	.L41
 560              	.LBE4:
  17:src/unit/motor_drive/motor_drive.cpp ****       }
  18:src/unit/motor_drive/motor_drive.cpp **** 
  19:src/unit/motor_drive/motor_drive.cpp ****       pid.SetGain(0.1, 0, 0.01);
 561              		.loc 1 19 7 view .LVU132
 562              		.loc 1 19 18 is_stmt 0 view .LVU133
 563 00ae 9FED181A 		vldr.32	s2, .L43+40
 564 00b2 DFED180A 		vldr.32	s1, .L43+44
 565 00b6 9FED180A 		vldr.32	s0, .L43+48
 566 00ba 3846     		mov	r0, r7
 567 00bc FFF7FEFF 		bl	_ZN3PID7SetGainEfff
 568              	.LVL59:
  20:src/unit/motor_drive/motor_drive.cpp ****       pid.SetLimit(-MAX_ROTATION_SPEED, MAX_ROTATION_SPEED);
 569              		.loc 1 20 7 is_stmt 1 view .LVU134
 570              		.loc 1 20 19 is_stmt 0 view .LVU135
 571 00c0 9FED0D1B 		vldr.64	d1, .L43+16
 572 00c4 9FED0E0B 		vldr.64	d0, .L43+24
 573 00c8 3846     		mov	r0, r7
 574 00ca FFF7FEFF 		bl	_ZN3PID8SetLimitEdd
 575              	.LVL60:
  21:src/unit/motor_drive/motor_drive.cpp ****       pid.SetSamplingFreq(500);
 576              		.loc 1 21 7 is_stmt 1 view .LVU136
 577              		.loc 1 21 26 is_stmt 0 view .LVU137
 578 00ce 4FF4FA71 		mov	r1, #500
 579 00d2 3846     		mov	r0, r7
 580 00d4 FFF7FEFF 		bl	_ZN3PID15SetSamplingFreqEt
 581              	.LVL61:
  22:src/unit/motor_drive/motor_drive.cpp ****       pid.SetType(0);
 582              		.loc 1 22 7 is_stmt 1 view .LVU138
 583              		.loc 1 22 18 is_stmt 0 view .LVU139
 584 00d8 0021     		movs	r1, #0
 585 00da 3846     		mov	r0, r7
 586 00dc FFF7FEFF 		bl	_ZN3PID7SetTypeEh
 587              	.LVL62:
 588              	.LBE3:
 589              	.LBE2:
ARM GAS  /var/folders/5c/srt4fy4j1pd641bjfx75k5000000gn/T//ccNEUMKe.s 			page 13


  23:src/unit/motor_drive/motor_drive.cpp **** }
 590              		.loc 1 23 1 view .LVU140
 591 00e0 3046     		mov	r0, r6
 592 00e2 F8BD     		pop	{r3, r4, r5, r6, r7, pc}
 593              	.LVL63:
 594              	.L44:
 595              		.loc 1 23 1 view .LVU141
 596 00e4 AFF30080 		.align	3
 597              	.L43:
 598 00e8 00000000 		.word	0
 599 00ec 00408F40 		.word	1083129856
 600 00f0 00000000 		.word	0
 601 00f4 0000F03F 		.word	1072693248
 602 00f8 182D4454 		.word	1413754136
 603 00fc FB211940 		.word	1075388923
 604 0100 182D4454 		.word	1413754136
 605 0104 FB2119C0 		.word	-1072094725
 606 0108 00001643 		.word	1125515264
 607 010c 00004842 		.word	1112014848
 608 0110 0AD7233C 		.word	1008981770
 609 0114 00000000 		.word	0
 610 0118 CDCCCC3D 		.word	1036831949
 611              		.cfi_endproc
 612              	.LFE250:
 613              		.fnend
 615              		.global	_ZN10MotorDriveC1EP12PwmSingleOutS1_S1_S1_S1_S1_S1_S1_PsPf
 616              		.thumb_set _ZN10MotorDriveC1EP12PwmSingleOutS1_S1_S1_S1_S1_S1_S1_PsPf,_ZN10MotorDriveC2EP12PwmSing
 617              		.section	.text._ZN10MotorDrive4InitEv,"ax",%progbits
 618              		.align	1
 619              		.global	_ZN10MotorDrive4InitEv
 620              		.syntax unified
 621              		.thumb
 622              		.thumb_func
 624              	_ZN10MotorDrive4InitEv:
 625              		.fnstart
 626              	.LVL64:
 627              	.LFB252:
  24:src/unit/motor_drive/motor_drive.cpp **** 
  25:src/unit/motor_drive/motor_drive.cpp **** void MotorDrive::Init() {
 628              		.loc 1 25 25 is_stmt 1 view -0
 629              		.cfi_startproc
 630              		@ args = 0, pretend = 0, frame = 0
 631              		@ frame_needed = 0, uses_anonymous_args = 0
 632              		.loc 1 25 25 is_stmt 0 view .LVU143
 633 0000 10B5     		push	{r4, lr}
 634              		.save {r4, lr}
 635              	.LCFI4:
 636              		.cfi_def_cfa_offset 8
 637              		.cfi_offset 4, -8
 638              		.cfi_offset 14, -4
 639 0002 0446     		mov	r4, r0
  26:src/unit/motor_drive/motor_drive.cpp ****       motor1a_->init();
 640              		.loc 1 26 7 is_stmt 1 view .LVU144
 641              		.loc 1 26 21 is_stmt 0 view .LVU145
 642 0004 0069     		ldr	r0, [r0, #16]
 643              	.LVL65:
 644              		.loc 1 26 21 view .LVU146
ARM GAS  /var/folders/5c/srt4fy4j1pd641bjfx75k5000000gn/T//ccNEUMKe.s 			page 14


 645 0006 FFF7FEFF 		bl	_ZN12PwmSingleOut4initEv
 646              	.LVL66:
  27:src/unit/motor_drive/motor_drive.cpp ****       motor1b_->init();
 647              		.loc 1 27 7 is_stmt 1 view .LVU147
 648              		.loc 1 27 21 is_stmt 0 view .LVU148
 649 000a 6069     		ldr	r0, [r4, #20]
 650 000c FFF7FEFF 		bl	_ZN12PwmSingleOut4initEv
 651              	.LVL67:
  28:src/unit/motor_drive/motor_drive.cpp ****       motor2a_->init();
 652              		.loc 1 28 7 is_stmt 1 view .LVU149
 653              		.loc 1 28 21 is_stmt 0 view .LVU150
 654 0010 A069     		ldr	r0, [r4, #24]
 655 0012 FFF7FEFF 		bl	_ZN12PwmSingleOut4initEv
 656              	.LVL68:
  29:src/unit/motor_drive/motor_drive.cpp ****       motor2b_->init();
 657              		.loc 1 29 7 is_stmt 1 view .LVU151
 658              		.loc 1 29 21 is_stmt 0 view .LVU152
 659 0016 E069     		ldr	r0, [r4, #28]
 660 0018 FFF7FEFF 		bl	_ZN12PwmSingleOut4initEv
 661              	.LVL69:
  30:src/unit/motor_drive/motor_drive.cpp ****       motor3a_->init();
 662              		.loc 1 30 7 is_stmt 1 view .LVU153
 663              		.loc 1 30 21 is_stmt 0 view .LVU154
 664 001c 206A     		ldr	r0, [r4, #32]
 665 001e FFF7FEFF 		bl	_ZN12PwmSingleOut4initEv
 666              	.LVL70:
  31:src/unit/motor_drive/motor_drive.cpp ****       motor3b_->init();
 667              		.loc 1 31 7 is_stmt 1 view .LVU155
 668              		.loc 1 31 21 is_stmt 0 view .LVU156
 669 0022 606A     		ldr	r0, [r4, #36]
 670 0024 FFF7FEFF 		bl	_ZN12PwmSingleOut4initEv
 671              	.LVL71:
  32:src/unit/motor_drive/motor_drive.cpp ****       motor4a_->init();
 672              		.loc 1 32 7 is_stmt 1 view .LVU157
 673              		.loc 1 32 21 is_stmt 0 view .LVU158
 674 0028 A06A     		ldr	r0, [r4, #40]
 675 002a FFF7FEFF 		bl	_ZN12PwmSingleOut4initEv
 676              	.LVL72:
  33:src/unit/motor_drive/motor_drive.cpp ****       motor4b_->init();
 677              		.loc 1 33 7 is_stmt 1 view .LVU159
 678              		.loc 1 33 21 is_stmt 0 view .LVU160
 679 002e E06A     		ldr	r0, [r4, #44]
 680 0030 FFF7FEFF 		bl	_ZN12PwmSingleOut4initEv
 681              	.LVL73:
  34:src/unit/motor_drive/motor_drive.cpp **** }
 682              		.loc 1 34 1 view .LVU161
 683 0034 10BD     		pop	{r4, pc}
 684              		.loc 1 34 1 view .LVU162
 685              		.cfi_endproc
 686              	.LFE252:
 687              		.fnend
 689              		.section	.text._ZN10MotorDrive3RunEssss,"ax",%progbits
 690              		.align	1
 691              		.global	_ZN10MotorDrive3RunEssss
 692              		.syntax unified
 693              		.thumb
 694              		.thumb_func
ARM GAS  /var/folders/5c/srt4fy4j1pd641bjfx75k5000000gn/T//ccNEUMKe.s 			page 15


 696              	_ZN10MotorDrive3RunEssss:
 697              		.fnstart
 698              	.LVL74:
 699              	.LFB254:
  35:src/unit/motor_drive/motor_drive.cpp **** 
  36:src/unit/motor_drive/motor_drive.cpp **** void MotorDrive::Drive(int16_t target_move_dir, float target_move_speed, float move_acce, int16_t r
  37:src/unit/motor_drive/motor_drive.cpp ****       float target_rad_s[MOTOR_QTY];
  38:src/unit/motor_drive/motor_drive.cpp ****       static float pre_target_rad_s[MOTOR_QTY];
  39:src/unit/motor_drive/motor_drive.cpp **** 
  40:src/unit/motor_drive/motor_drive.cpp ****       int16_t power[MOTOR_QTY];
  41:src/unit/motor_drive/motor_drive.cpp ****       static float move_speed = 0;
  42:src/unit/motor_drive/motor_drive.cpp **** 
  43:src/unit/motor_drive/motor_drive.cpp ****       double dt = dt_timer.read();
  44:src/unit/motor_drive/motor_drive.cpp ****       dt_timer.reset();
  45:src/unit/motor_drive/motor_drive.cpp **** 
  46:src/unit/motor_drive/motor_drive.cpp ****       if (dt > 0.1) {
  47:src/unit/motor_drive/motor_drive.cpp ****             move_speed = 0;
  48:src/unit/motor_drive/motor_drive.cpp ****             for (uint8_t i = 0; i < MOTOR_QTY; i++) motor_pid[i].ResetI();
  49:src/unit/motor_drive/motor_drive.cpp ****       }
  50:src/unit/motor_drive/motor_drive.cpp ****       double speed_change = move_acce * dt;
  51:src/unit/motor_drive/motor_drive.cpp ****       if (move_acce == 0) {
  52:src/unit/motor_drive/motor_drive.cpp ****             move_speed = target_move_speed;
  53:src/unit/motor_drive/motor_drive.cpp ****       } else if (target_move_speed > move_speed) {
  54:src/unit/motor_drive/motor_drive.cpp ****             move_speed += speed_change;
  55:src/unit/motor_drive/motor_drive.cpp ****             if (move_speed > target_move_speed) move_speed = target_move_speed;
  56:src/unit/motor_drive/motor_drive.cpp ****       } else if (target_move_speed < move_speed) {
  57:src/unit/motor_drive/motor_drive.cpp ****             move_speed -= speed_change;
  58:src/unit/motor_drive/motor_drive.cpp ****             if (move_speed < target_move_speed) move_speed = target_move_speed;
  59:src/unit/motor_drive/motor_drive.cpp ****       }
  60:src/unit/motor_drive/motor_drive.cpp **** 
  61:src/unit/motor_drive/motor_drive.cpp ****       float vel_x = move_speed * MyMath::cosDeg(target_move_dir);
  62:src/unit/motor_drive/motor_drive.cpp ****       float vel_y = move_speed * MyMath::sinDeg(target_move_dir);
  63:src/unit/motor_drive/motor_drive.cpp **** 
  64:src/unit/motor_drive/motor_drive.cpp ****       pid.Compute(*yaw_, rotation_dir);  // 姿勢制御用PID
  65:src/unit/motor_drive/motor_drive.cpp ****       for (uint8_t i = 0; i < MOTOR_QTY; i++) {
  66:src/unit/motor_drive/motor_drive.cpp ****             float robot_rotation_speed = pid.Get();
  67:src/unit/motor_drive/motor_drive.cpp ****             if (abs(robot_rotation_speed) > rotation_speed && rotation_speed != 0) robot_rotation_s
  68:src/unit/motor_drive/motor_drive.cpp ****             if (rotation_center == FRONT) {
  69:src/unit/motor_drive/motor_drive.cpp ****                   robot_rotation_speed *= 2;
  70:src/unit/motor_drive/motor_drive.cpp ****                   if (i == 0 || i == 3) robot_rotation_speed = 0;
  71:src/unit/motor_drive/motor_drive.cpp ****             } else if (rotation_center == RIGHT) {
  72:src/unit/motor_drive/motor_drive.cpp ****                   robot_rotation_speed *= 2;
  73:src/unit/motor_drive/motor_drive.cpp ****                   if (i == 0 || i == 1) robot_rotation_speed = 0;
  74:src/unit/motor_drive/motor_drive.cpp ****             } else if (rotation_center == BACK) {
  75:src/unit/motor_drive/motor_drive.cpp ****                   robot_rotation_speed *= 2;
  76:src/unit/motor_drive/motor_drive.cpp ****                   if (i == 1 || i == 2) robot_rotation_speed = 0;
  77:src/unit/motor_drive/motor_drive.cpp ****             } else if (rotation_center == LEFT) {
  78:src/unit/motor_drive/motor_drive.cpp ****                   robot_rotation_speed *= 2;
  79:src/unit/motor_drive/motor_drive.cpp ****                   if (i == 2 || i == 3) robot_rotation_speed = 0;
  80:src/unit/motor_drive/motor_drive.cpp ****             }
  81:src/unit/motor_drive/motor_drive.cpp ****             target_rad_s[i] = (1.0f / WHEEL_R) * ((-1 * MyMath::sinDeg(45 + (90 * i)) * MyMath::cos
  82:src/unit/motor_drive/motor_drive.cpp ****       }
  83:src/unit/motor_drive/motor_drive.cpp **** 
  84:src/unit/motor_drive/motor_drive.cpp ****       // 速度制御
  85:src/unit/motor_drive/motor_drive.cpp ****       for (uint8_t i = 0; i < MOTOR_QTY; i++) {
  86:src/unit/motor_drive/motor_drive.cpp ****             if (target_rad_s[i] == 0 || ((pre_target_rad_s[i] / abs(pre_target_rad_s[i])) != (targe
  87:src/unit/motor_drive/motor_drive.cpp ****             pre_target_rad_s[i] = target_rad_s[i];
ARM GAS  /var/folders/5c/srt4fy4j1pd641bjfx75k5000000gn/T//ccNEUMKe.s 			page 16


  88:src/unit/motor_drive/motor_drive.cpp ****             motor_pid[i].Compute(motor_abs_rad_s_[i], abs(target_rad_s[i]));
  89:src/unit/motor_drive/motor_drive.cpp ****             if (target_rad_s[i] > 0) {
  90:src/unit/motor_drive/motor_drive.cpp ****                   power[i] = motor_pid[i].Get();
  91:src/unit/motor_drive/motor_drive.cpp ****                   motor_rad_s_[i] = motor_abs_rad_s_[i];
  92:src/unit/motor_drive/motor_drive.cpp ****             } else {
  93:src/unit/motor_drive/motor_drive.cpp ****                   power[i] = -motor_pid[i].Get();
  94:src/unit/motor_drive/motor_drive.cpp ****                   motor_rad_s_[i] = -motor_abs_rad_s_[i];
  95:src/unit/motor_drive/motor_drive.cpp ****             }
  96:src/unit/motor_drive/motor_drive.cpp ****       }
  97:src/unit/motor_drive/motor_drive.cpp **** 
  98:src/unit/motor_drive/motor_drive.cpp ****       // 移動平均
  99:src/unit/motor_drive/motor_drive.cpp ****       for (uint8_t i = 0; i < MOTOR_QTY; i++) {
 100:src/unit/motor_drive/motor_drive.cpp ****             motor_ave[i].Compute(power[i]);
 101:src/unit/motor_drive/motor_drive.cpp ****             power[i] = motor_ave[i].Get();
 102:src/unit/motor_drive/motor_drive.cpp ****       }
 103:src/unit/motor_drive/motor_drive.cpp **** 
 104:src/unit/motor_drive/motor_drive.cpp ****       moving_vel_x = (WHEEL_R / 2.0f) * (motor_rad_s_[0] - motor_rad_s_[1] - motor_rad_s_[2] + moto
 105:src/unit/motor_drive/motor_drive.cpp ****       moving_vel_y = (WHEEL_R / 2.0f) * (-motor_rad_s_[0] - motor_rad_s_[1] + motor_rad_s_[2] + mot
 106:src/unit/motor_drive/motor_drive.cpp ****       moving_speed = MyMath::sqrt(moving_vel_x * moving_vel_x + moving_vel_y * moving_vel_y);
 107:src/unit/motor_drive/motor_drive.cpp ****       moving_dir = MyMath::atan2(moving_vel_x, moving_vel_y);
 108:src/unit/motor_drive/motor_drive.cpp **** 
 109:src/unit/motor_drive/motor_drive.cpp ****       Run(power[0], power[1], power[2], power[3]);
 110:src/unit/motor_drive/motor_drive.cpp **** }
 111:src/unit/motor_drive/motor_drive.cpp **** 
 112:src/unit/motor_drive/motor_drive.cpp **** void MotorDrive::Run(int16_t motor1, int16_t motor2, int16_t motor3, int16_t motor4) {
 700              		.loc 1 112 86 is_stmt 1 view -0
 701              		.cfi_startproc
 702              		@ args = 4, pretend = 0, frame = 0
 703              		@ frame_needed = 0, uses_anonymous_args = 0
 704              		.loc 1 112 86 is_stmt 0 view .LVU164
 705 0000 2DE9F041 		push	{r4, r5, r6, r7, r8, lr}
 706              	.LCFI5:
 707              		.cfi_def_cfa_offset 24
 708              		.cfi_offset 4, -24
 709              		.cfi_offset 5, -20
 710              		.cfi_offset 6, -16
 711              		.cfi_offset 7, -12
 712              		.cfi_offset 8, -8
 713              		.cfi_offset 14, -4
 714 0004 0446     		mov	r4, r0
 715 0006 0F46     		mov	r7, r1
 716 0008 1646     		mov	r6, r2
 717 000a 1D46     		mov	r5, r3
 718 000c BDF91880 		ldrsh	r8, [sp, #24]
 113:src/unit/motor_drive/motor_drive.cpp ****       // Init();
 114:src/unit/motor_drive/motor_drive.cpp ****       if (abs(motor1) > 1000) motor1 = motor1 * (abs(motor1) / motor1);
 719              		.loc 1 114 7 is_stmt 1 view .LVU165
 720              		.loc 1 114 11 is_stmt 0 view .LVU166
 721 0010 81EAE173 		eor	r3, r1, r1, asr #31
 722              	.LVL75:
 723              		.loc 1 114 11 view .LVU167
 724 0014 A3EBE173 		sub	r3, r3, r1, asr #31
 725 0018 9BB2     		uxth	r3, r3
 726              		.loc 1 114 7 view .LVU168
 727 001a B3F57A7F 		cmp	r3, #1000
 728 001e 04D9     		bls	.L48
 729              		.loc 1 114 31 is_stmt 1 discriminator 1 view .LVU169
ARM GAS  /var/folders/5c/srt4fy4j1pd641bjfx75k5000000gn/T//ccNEUMKe.s 			page 17


 730              		.loc 1 114 62 is_stmt 0 discriminator 1 view .LVU170
 731 0020 93FBF1F3 		sdiv	r3, r3, r1
 732              		.loc 1 114 38 discriminator 1 view .LVU171
 733 0024 13FB01F3 		smulbb	r3, r3, r1
 734 0028 1FB2     		sxth	r7, r3
 735              	.LVL76:
 736              	.L48:
 115:src/unit/motor_drive/motor_drive.cpp ****       if (abs(motor2) > 1000) motor2 = motor2 * (abs(motor2) / motor2);
 737              		.loc 1 115 7 is_stmt 1 view .LVU172
 738              		.loc 1 115 11 is_stmt 0 view .LVU173
 739 002a 86EAE673 		eor	r3, r6, r6, asr #31
 740 002e A3EBE673 		sub	r3, r3, r6, asr #31
 741 0032 9BB2     		uxth	r3, r3
 742              		.loc 1 115 7 view .LVU174
 743 0034 B3F57A7F 		cmp	r3, #1000
 744 0038 04D9     		bls	.L49
 745              		.loc 1 115 31 is_stmt 1 discriminator 1 view .LVU175
 746              		.loc 1 115 62 is_stmt 0 discriminator 1 view .LVU176
 747 003a 93FBF6F3 		sdiv	r3, r3, r6
 748              		.loc 1 115 38 discriminator 1 view .LVU177
 749 003e 13FB06F3 		smulbb	r3, r3, r6
 750 0042 1EB2     		sxth	r6, r3
 751              	.LVL77:
 752              	.L49:
 116:src/unit/motor_drive/motor_drive.cpp ****       if (abs(motor3) > 1000) motor3 = motor3 * (abs(motor3) / motor3);
 753              		.loc 1 116 7 is_stmt 1 view .LVU178
 754              		.loc 1 116 11 is_stmt 0 view .LVU179
 755 0044 85EAE573 		eor	r3, r5, r5, asr #31
 756 0048 A3EBE573 		sub	r3, r3, r5, asr #31
 757 004c 9BB2     		uxth	r3, r3
 758              		.loc 1 116 7 view .LVU180
 759 004e B3F57A7F 		cmp	r3, #1000
 760 0052 04D9     		bls	.L50
 761              		.loc 1 116 31 is_stmt 1 discriminator 1 view .LVU181
 762              		.loc 1 116 62 is_stmt 0 discriminator 1 view .LVU182
 763 0054 93FBF5F3 		sdiv	r3, r3, r5
 764              		.loc 1 116 38 discriminator 1 view .LVU183
 765 0058 13FB05F3 		smulbb	r3, r3, r5
 766 005c 1DB2     		sxth	r5, r3
 767              	.LVL78:
 768              	.L50:
 117:src/unit/motor_drive/motor_drive.cpp ****       if (abs(motor4) > 1000) motor4 = motor4 * (abs(motor4) / motor4);
 769              		.loc 1 117 7 is_stmt 1 view .LVU184
 770              		.loc 1 117 11 is_stmt 0 view .LVU185
 771 005e 88EAE873 		eor	r3, r8, r8, asr #31
 772 0062 A3EBE873 		sub	r3, r3, r8, asr #31
 773 0066 9BB2     		uxth	r3, r3
 774              		.loc 1 117 7 view .LVU186
 775 0068 B3F57A7F 		cmp	r3, #1000
 776 006c 05D9     		bls	.L51
 777              		.loc 1 117 31 is_stmt 1 discriminator 1 view .LVU187
 778              		.loc 1 117 62 is_stmt 0 discriminator 1 view .LVU188
 779 006e 93FBF8F3 		sdiv	r3, r3, r8
 780              		.loc 1 117 38 discriminator 1 view .LVU189
 781 0072 13FB08F3 		smulbb	r3, r3, r8
 782 0076 0FFA83F8 		sxth	r8, r3
 783              	.LVL79:
ARM GAS  /var/folders/5c/srt4fy4j1pd641bjfx75k5000000gn/T//ccNEUMKe.s 			page 18


 784              	.L51:
 118:src/unit/motor_drive/motor_drive.cpp ****       if (motor1 > 0) {
 785              		.loc 1 118 7 is_stmt 1 view .LVU190
 786 007a 002F     		cmp	r7, #0
 787 007c 48DD     		ble	.L52
 119:src/unit/motor_drive/motor_drive.cpp ****             motor1a_->write(motor1 * 0.001f);
 788              		.loc 1 119 13 view .LVU191
 789              		.loc 1 119 28 is_stmt 0 view .LVU192
 790 007e 07EE907A 		vmov	s15, r7	@ int
 791 0082 B8EEE70A 		vcvt.f32.s32	s0, s15
 792 0086 DFED447A 		vldr.32	s15, .L61
 793 008a 20EE270A 		vmul.f32	s0, s0, s15
 794 008e 2069     		ldr	r0, [r4, #16]
 795              	.LVL80:
 796              		.loc 1 119 28 view .LVU193
 797 0090 FFF7FEFF 		bl	_ZN12PwmSingleOut5writeEf
 798              	.LVL81:
 120:src/unit/motor_drive/motor_drive.cpp ****             motor1b_->write(0);
 799              		.loc 1 120 13 is_stmt 1 view .LVU194
 800              		.loc 1 120 28 is_stmt 0 view .LVU195
 801 0094 9FED410A 		vldr.32	s0, .L61+4
 802 0098 6069     		ldr	r0, [r4, #20]
 803 009a FFF7FEFF 		bl	_ZN12PwmSingleOut5writeEf
 804              	.LVL82:
 805              	.L53:
 121:src/unit/motor_drive/motor_drive.cpp ****       } else {
 122:src/unit/motor_drive/motor_drive.cpp ****             motor1a_->write(0);
 123:src/unit/motor_drive/motor_drive.cpp ****             motor1b_->write(motor1 * -0.001f);
 124:src/unit/motor_drive/motor_drive.cpp ****       }
 125:src/unit/motor_drive/motor_drive.cpp ****       if (motor2 > 0) {
 806              		.loc 1 125 7 is_stmt 1 view .LVU196
 807 009e 002E     		cmp	r6, #0
 808 00a0 47DD     		ble	.L54
 126:src/unit/motor_drive/motor_drive.cpp ****             motor2a_->write(motor2 * 0.001f);
 809              		.loc 1 126 13 view .LVU197
 810              		.loc 1 126 28 is_stmt 0 view .LVU198
 811 00a2 07EE906A 		vmov	s15, r6	@ int
 812 00a6 B8EEE70A 		vcvt.f32.s32	s0, s15
 813 00aa DFED3B7A 		vldr.32	s15, .L61
 814 00ae 20EE270A 		vmul.f32	s0, s0, s15
 815 00b2 A069     		ldr	r0, [r4, #24]
 816 00b4 FFF7FEFF 		bl	_ZN12PwmSingleOut5writeEf
 817              	.LVL83:
 127:src/unit/motor_drive/motor_drive.cpp ****             motor2b_->write(0);
 818              		.loc 1 127 13 is_stmt 1 view .LVU199
 819              		.loc 1 127 28 is_stmt 0 view .LVU200
 820 00b8 9FED380A 		vldr.32	s0, .L61+4
 821 00bc E069     		ldr	r0, [r4, #28]
 822 00be FFF7FEFF 		bl	_ZN12PwmSingleOut5writeEf
 823              	.LVL84:
 824              	.L55:
 128:src/unit/motor_drive/motor_drive.cpp ****       } else {
 129:src/unit/motor_drive/motor_drive.cpp ****             motor2a_->write(0);
 130:src/unit/motor_drive/motor_drive.cpp ****             motor2b_->write(motor2 * -0.001f);
 131:src/unit/motor_drive/motor_drive.cpp ****       }
 132:src/unit/motor_drive/motor_drive.cpp ****       if (motor3 > 0) {
 825              		.loc 1 132 7 is_stmt 1 view .LVU201
ARM GAS  /var/folders/5c/srt4fy4j1pd641bjfx75k5000000gn/T//ccNEUMKe.s 			page 19


 826 00c2 002D     		cmp	r5, #0
 827 00c4 46DD     		ble	.L56
 133:src/unit/motor_drive/motor_drive.cpp ****             motor3a_->write(motor3 * 0.001f);
 828              		.loc 1 133 13 view .LVU202
 829              		.loc 1 133 28 is_stmt 0 view .LVU203
 830 00c6 07EE905A 		vmov	s15, r5	@ int
 831 00ca B8EEE70A 		vcvt.f32.s32	s0, s15
 832 00ce DFED327A 		vldr.32	s15, .L61
 833 00d2 20EE270A 		vmul.f32	s0, s0, s15
 834 00d6 206A     		ldr	r0, [r4, #32]
 835 00d8 FFF7FEFF 		bl	_ZN12PwmSingleOut5writeEf
 836              	.LVL85:
 134:src/unit/motor_drive/motor_drive.cpp ****             motor3b_->write(0);
 837              		.loc 1 134 13 is_stmt 1 view .LVU204
 838              		.loc 1 134 28 is_stmt 0 view .LVU205
 839 00dc 9FED2F0A 		vldr.32	s0, .L61+4
 840 00e0 606A     		ldr	r0, [r4, #36]
 841 00e2 FFF7FEFF 		bl	_ZN12PwmSingleOut5writeEf
 842              	.LVL86:
 843              	.L57:
 135:src/unit/motor_drive/motor_drive.cpp ****       } else {
 136:src/unit/motor_drive/motor_drive.cpp ****             motor3a_->write(0);
 137:src/unit/motor_drive/motor_drive.cpp ****             motor3b_->write(motor3 * -0.001f);
 138:src/unit/motor_drive/motor_drive.cpp ****       }
 139:src/unit/motor_drive/motor_drive.cpp ****       if (motor4 > 0) {
 844              		.loc 1 139 7 is_stmt 1 view .LVU206
 845 00e6 B8F1000F 		cmp	r8, #0
 846 00ea 44DD     		ble	.L58
 140:src/unit/motor_drive/motor_drive.cpp ****             motor4a_->write(motor4 * 0.001f);
 847              		.loc 1 140 13 view .LVU207
 848              		.loc 1 140 28 is_stmt 0 view .LVU208
 849 00ec 07EE908A 		vmov	s15, r8	@ int
 850 00f0 B8EEE70A 		vcvt.f32.s32	s0, s15
 851 00f4 DFED287A 		vldr.32	s15, .L61
 852 00f8 20EE270A 		vmul.f32	s0, s0, s15
 853 00fc A06A     		ldr	r0, [r4, #40]
 854 00fe FFF7FEFF 		bl	_ZN12PwmSingleOut5writeEf
 855              	.LVL87:
 141:src/unit/motor_drive/motor_drive.cpp ****             motor4b_->write(0);
 856              		.loc 1 141 13 is_stmt 1 view .LVU209
 857              		.loc 1 141 28 is_stmt 0 view .LVU210
 858 0102 9FED260A 		vldr.32	s0, .L61+4
 859 0106 E06A     		ldr	r0, [r4, #44]
 860 0108 FFF7FEFF 		bl	_ZN12PwmSingleOut5writeEf
 861              	.LVL88:
 862              	.L47:
 142:src/unit/motor_drive/motor_drive.cpp ****       } else {
 143:src/unit/motor_drive/motor_drive.cpp ****             motor4a_->write(0);
 144:src/unit/motor_drive/motor_drive.cpp ****             motor4b_->write(motor4 * -0.001f);
 145:src/unit/motor_drive/motor_drive.cpp ****       }
 146:src/unit/motor_drive/motor_drive.cpp **** }
 863              		.loc 1 146 1 view .LVU211
 864 010c BDE8F081 		pop	{r4, r5, r6, r7, r8, pc}
 865              	.LVL89:
 866              	.L52:
 122:src/unit/motor_drive/motor_drive.cpp ****             motor1b_->write(motor1 * -0.001f);
 867              		.loc 1 122 13 is_stmt 1 view .LVU212
ARM GAS  /var/folders/5c/srt4fy4j1pd641bjfx75k5000000gn/T//ccNEUMKe.s 			page 20


 122:src/unit/motor_drive/motor_drive.cpp ****             motor1b_->write(motor1 * -0.001f);
 868              		.loc 1 122 28 is_stmt 0 view .LVU213
 869 0110 9FED220A 		vldr.32	s0, .L61+4
 870 0114 2069     		ldr	r0, [r4, #16]
 871              	.LVL90:
 122:src/unit/motor_drive/motor_drive.cpp ****             motor1b_->write(motor1 * -0.001f);
 872              		.loc 1 122 28 view .LVU214
 873 0116 FFF7FEFF 		bl	_ZN12PwmSingleOut5writeEf
 874              	.LVL91:
 123:src/unit/motor_drive/motor_drive.cpp ****       }
 875              		.loc 1 123 13 is_stmt 1 view .LVU215
 123:src/unit/motor_drive/motor_drive.cpp ****       }
 876              		.loc 1 123 28 is_stmt 0 view .LVU216
 877 011a 07EE907A 		vmov	s15, r7	@ int
 878 011e F8EEE77A 		vcvt.f32.s32	s15, s15
 879 0122 9FED1F0A 		vldr.32	s0, .L61+8
 880 0126 27EE800A 		vmul.f32	s0, s15, s0
 881 012a 6069     		ldr	r0, [r4, #20]
 882 012c FFF7FEFF 		bl	_ZN12PwmSingleOut5writeEf
 883              	.LVL92:
 884 0130 B5E7     		b	.L53
 885              	.L54:
 129:src/unit/motor_drive/motor_drive.cpp ****             motor2b_->write(motor2 * -0.001f);
 886              		.loc 1 129 13 is_stmt 1 view .LVU217
 129:src/unit/motor_drive/motor_drive.cpp ****             motor2b_->write(motor2 * -0.001f);
 887              		.loc 1 129 28 is_stmt 0 view .LVU218
 888 0132 9FED1A0A 		vldr.32	s0, .L61+4
 889 0136 A069     		ldr	r0, [r4, #24]
 890 0138 FFF7FEFF 		bl	_ZN12PwmSingleOut5writeEf
 891              	.LVL93:
 130:src/unit/motor_drive/motor_drive.cpp ****       }
 892              		.loc 1 130 13 is_stmt 1 view .LVU219
 130:src/unit/motor_drive/motor_drive.cpp ****       }
 893              		.loc 1 130 28 is_stmt 0 view .LVU220
 894 013c 07EE906A 		vmov	s15, r6	@ int
 895 0140 F8EEE77A 		vcvt.f32.s32	s15, s15
 896 0144 9FED160A 		vldr.32	s0, .L61+8
 897 0148 27EE800A 		vmul.f32	s0, s15, s0
 898 014c E069     		ldr	r0, [r4, #28]
 899 014e FFF7FEFF 		bl	_ZN12PwmSingleOut5writeEf
 900              	.LVL94:
 901 0152 B6E7     		b	.L55
 902              	.L56:
 136:src/unit/motor_drive/motor_drive.cpp ****             motor3b_->write(motor3 * -0.001f);
 903              		.loc 1 136 13 is_stmt 1 view .LVU221
 136:src/unit/motor_drive/motor_drive.cpp ****             motor3b_->write(motor3 * -0.001f);
 904              		.loc 1 136 28 is_stmt 0 view .LVU222
 905 0154 9FED110A 		vldr.32	s0, .L61+4
 906 0158 206A     		ldr	r0, [r4, #32]
 907 015a FFF7FEFF 		bl	_ZN12PwmSingleOut5writeEf
 908              	.LVL95:
 137:src/unit/motor_drive/motor_drive.cpp ****       }
 909              		.loc 1 137 13 is_stmt 1 view .LVU223
 137:src/unit/motor_drive/motor_drive.cpp ****       }
 910              		.loc 1 137 28 is_stmt 0 view .LVU224
 911 015e 07EE905A 		vmov	s15, r5	@ int
 912 0162 F8EEE77A 		vcvt.f32.s32	s15, s15
ARM GAS  /var/folders/5c/srt4fy4j1pd641bjfx75k5000000gn/T//ccNEUMKe.s 			page 21


 913 0166 9FED0E0A 		vldr.32	s0, .L61+8
 914 016a 27EE800A 		vmul.f32	s0, s15, s0
 915 016e 606A     		ldr	r0, [r4, #36]
 916 0170 FFF7FEFF 		bl	_ZN12PwmSingleOut5writeEf
 917              	.LVL96:
 918 0174 B7E7     		b	.L57
 919              	.L58:
 143:src/unit/motor_drive/motor_drive.cpp ****             motor4b_->write(motor4 * -0.001f);
 920              		.loc 1 143 13 is_stmt 1 view .LVU225
 143:src/unit/motor_drive/motor_drive.cpp ****             motor4b_->write(motor4 * -0.001f);
 921              		.loc 1 143 28 is_stmt 0 view .LVU226
 922 0176 9FED090A 		vldr.32	s0, .L61+4
 923 017a A06A     		ldr	r0, [r4, #40]
 924 017c FFF7FEFF 		bl	_ZN12PwmSingleOut5writeEf
 925              	.LVL97:
 144:src/unit/motor_drive/motor_drive.cpp ****       }
 926              		.loc 1 144 13 is_stmt 1 view .LVU227
 144:src/unit/motor_drive/motor_drive.cpp ****       }
 927              		.loc 1 144 28 is_stmt 0 view .LVU228
 928 0180 07EE908A 		vmov	s15, r8	@ int
 929 0184 F8EEE77A 		vcvt.f32.s32	s15, s15
 930 0188 9FED050A 		vldr.32	s0, .L61+8
 931 018c 27EE800A 		vmul.f32	s0, s15, s0
 932 0190 E06A     		ldr	r0, [r4, #44]
 933 0192 FFF7FEFF 		bl	_ZN12PwmSingleOut5writeEf
 934              	.LVL98:
 935              		.loc 1 146 1 view .LVU229
 936 0196 B9E7     		b	.L47
 937              	.L62:
 938              		.align	2
 939              	.L61:
 940 0198 6F12833A 		.word	981668463
 941 019c 00000000 		.word	0
 942 01a0 6F1283BA 		.word	-1165815185
 943              		.cfi_endproc
 944              	.LFE254:
 945              		.cantunwind
 946              		.fnend
 948              		.global	__aeabi_dcmpgt
 949              		.global	__aeabi_dadd
 950              		.global	__aeabi_d2f
 951              		.global	__aeabi_dsub
 952              		.global	__aeabi_i2d
 953              		.section	.text._ZN10MotorDrive5DriveEsffsfh,"ax",%progbits
 954              		.align	1
 955              		.global	_ZN10MotorDrive5DriveEsffsfh
 956              		.syntax unified
 957              		.thumb
 958              		.thumb_func
 960              	_ZN10MotorDrive5DriveEsffsfh:
 961              		.fnstart
 962              	.LVL99:
 963              	.LFB253:
  36:src/unit/motor_drive/motor_drive.cpp ****       float target_rad_s[MOTOR_QTY];
 964              		.loc 1 36 160 is_stmt 1 view -0
 965              		.cfi_startproc
 966              		@ args = 0, pretend = 0, frame = 24
ARM GAS  /var/folders/5c/srt4fy4j1pd641bjfx75k5000000gn/T//ccNEUMKe.s 			page 22


 967              		@ frame_needed = 0, uses_anonymous_args = 0
  36:src/unit/motor_drive/motor_drive.cpp ****       float target_rad_s[MOTOR_QTY];
 968              		.loc 1 36 160 is_stmt 0 view .LVU231
 969 0000 2DE9F043 		push	{r4, r5, r6, r7, r8, r9, lr}
 970              		.save {r4, r5, r6, r7, r8, r9, lr}
 971              	.LCFI6:
 972              		.cfi_def_cfa_offset 28
 973              		.cfi_offset 4, -28
 974              		.cfi_offset 5, -24
 975              		.cfi_offset 6, -20
 976              		.cfi_offset 7, -16
 977              		.cfi_offset 8, -12
 978              		.cfi_offset 9, -8
 979              		.cfi_offset 14, -4
 980 0004 2DED068B 		vpush.64	{d8, d9, d10}
 981              		.vsave {d8, d9, d10}
 982              	.LCFI7:
 983              		.cfi_def_cfa_offset 52
 984              		.cfi_offset 80, -52
 985              		.cfi_offset 81, -48
 986              		.cfi_offset 82, -44
 987              		.cfi_offset 83, -40
 988              		.cfi_offset 84, -36
 989              		.cfi_offset 85, -32
 990              		.pad #36
 991 0008 89B0     		sub	sp, sp, #36
 992              	.LCFI8:
 993              		.cfi_def_cfa_offset 88
 994 000a 0446     		mov	r4, r0
 995 000c 8946     		mov	r9, r1
 996 000e F0EE408A 		vmov.f32	s17, s0
 997 0012 B0EE608A 		vmov.f32	s16, s1
 998 0016 09EE102A 		vmov	s18, r2	@ int
 999 001a F0EE419A 		vmov.f32	s19, s2
 1000 001e 9846     		mov	r8, r3
  37:src/unit/motor_drive/motor_drive.cpp ****       static float pre_target_rad_s[MOTOR_QTY];
 1001              		.loc 1 37 7 is_stmt 1 view .LVU232
  38:src/unit/motor_drive/motor_drive.cpp **** 
 1002              		.loc 1 38 7 view .LVU233
  40:src/unit/motor_drive/motor_drive.cpp ****       static float move_speed = 0;
 1003              		.loc 1 40 7 view .LVU234
  41:src/unit/motor_drive/motor_drive.cpp **** 
 1004              		.loc 1 41 7 view .LVU235
  43:src/unit/motor_drive/motor_drive.cpp ****       dt_timer.reset();
 1005              		.loc 1 43 7 view .LVU236
  43:src/unit/motor_drive/motor_drive.cpp ****       dt_timer.reset();
 1006              		.loc 1 43 32 is_stmt 0 view .LVU237
 1007 0020 00F57365 		add	r5, r0, #3888
 1008 0024 2846     		mov	r0, r5
 1009              	.LVL100:
  43:src/unit/motor_drive/motor_drive.cpp ****       dt_timer.reset();
 1010              		.loc 1 43 32 view .LVU238
 1011 0026 FFF7FEFF 		bl	_ZN5Timer4readEv
 1012              	.LVL101:
  43:src/unit/motor_drive/motor_drive.cpp ****       dt_timer.reset();
 1013              		.loc 1 43 32 view .LVU239
 1014 002a 57EC106B 		vmov	r6, r7, d0
ARM GAS  /var/folders/5c/srt4fy4j1pd641bjfx75k5000000gn/T//ccNEUMKe.s 			page 23


 1015              	.LVL102:
  44:src/unit/motor_drive/motor_drive.cpp **** 
 1016              		.loc 1 44 7 is_stmt 1 view .LVU240
  44:src/unit/motor_drive/motor_drive.cpp **** 
 1017              		.loc 1 44 21 is_stmt 0 view .LVU241
 1018 002e 2846     		mov	r0, r5
 1019 0030 FFF7FEFF 		bl	_ZN5Timer5resetEv
 1020              	.LVL103:
  46:src/unit/motor_drive/motor_drive.cpp ****             move_speed = 0;
 1021              		.loc 1 46 7 is_stmt 1 view .LVU242
 1022              	.LBB5:
 1023 0034 CCA3     		adr	r3, .L125+24
 1024 0036 D3E90023 		ldrd	r2, [r3]
 1025 003a 3046     		mov	r0, r6
 1026 003c 3946     		mov	r1, r7
 1027 003e FFF7FEFF 		bl	__aeabi_dcmpgt
 1028              	.LVL104:
 1029 0042 80B1     		cbz	r0, .L64
 1030              	.LBB6:
  47:src/unit/motor_drive/motor_drive.cpp ****             for (uint8_t i = 0; i < MOTOR_QTY; i++) motor_pid[i].ResetI();
 1031              		.loc 1 47 13 view .LVU243
  47:src/unit/motor_drive/motor_drive.cpp ****             for (uint8_t i = 0; i < MOTOR_QTY; i++) motor_pid[i].ResetI();
 1032              		.loc 1 47 24 is_stmt 0 view .LVU244
 1033 0044 C44B     		ldr	r3, .L125+8
 1034 0046 0022     		movs	r2, #0
 1035 0048 1A60     		str	r2, [r3]	@ float
  48:src/unit/motor_drive/motor_drive.cpp ****       }
 1036              		.loc 1 48 13 is_stmt 1 view .LVU245
 1037              	.LVL105:
 1038              	.LBB7:
  48:src/unit/motor_drive/motor_drive.cpp ****       }
 1039              		.loc 1 48 26 is_stmt 0 view .LVU246
 1040 004a 0025     		movs	r5, #0
  48:src/unit/motor_drive/motor_drive.cpp ****       }
 1041              		.loc 1 48 13 view .LVU247
 1042 004c 09E0     		b	.L66
 1043              	.LVL106:
 1044              	.L67:
  48:src/unit/motor_drive/motor_drive.cpp ****       }
 1045              		.loc 1 48 53 is_stmt 1 discriminator 4 view .LVU248
  48:src/unit/motor_drive/motor_drive.cpp ****       }
 1046              		.loc 1 48 72 is_stmt 0 discriminator 4 view .LVU249
 1047 004e 6820     		movs	r0, #104
 1048 0050 05FB00F0 		mul	r0, r5, r0
 1049 0054 00F55160 		add	r0, r0, #3344
 1050 0058 2044     		add	r0, r0, r4
 1051 005a FFF7FEFF 		bl	_ZN3PID6ResetIEv
 1052              	.LVL107:
  48:src/unit/motor_drive/motor_drive.cpp ****       }
 1053              		.loc 1 48 13 is_stmt 1 discriminator 4 view .LVU250
 1054 005e 0135     		adds	r5, r5, #1
 1055              	.LVL108:
  48:src/unit/motor_drive/motor_drive.cpp ****       }
 1056              		.loc 1 48 13 is_stmt 0 discriminator 4 view .LVU251
 1057 0060 EDB2     		uxtb	r5, r5
 1058              	.LVL109:
 1059              	.L66:
ARM GAS  /var/folders/5c/srt4fy4j1pd641bjfx75k5000000gn/T//ccNEUMKe.s 			page 24


  48:src/unit/motor_drive/motor_drive.cpp ****       }
 1060              		.loc 1 48 35 is_stmt 1 discriminator 3 view .LVU252
 1061 0062 032D     		cmp	r5, #3
 1062 0064 F3D9     		bls	.L67
 1063              	.LVL110:
 1064              	.L64:
  48:src/unit/motor_drive/motor_drive.cpp ****       }
 1065              		.loc 1 48 35 is_stmt 0 discriminator 3 view .LVU253
 1066              	.LBE7:
 1067              	.LBE6:
 1068              	.LBE5:
  50:src/unit/motor_drive/motor_drive.cpp ****       if (move_acce == 0) {
 1069              		.loc 1 50 7 is_stmt 1 view .LVU254
  50:src/unit/motor_drive/motor_drive.cpp ****       if (move_acce == 0) {
 1070              		.loc 1 50 29 is_stmt 0 view .LVU255
 1071 0066 18EE100A 		vmov	r0, s16
 1072 006a FFF7FEFF 		bl	__aeabi_f2d
 1073              	.LVL111:
  50:src/unit/motor_drive/motor_drive.cpp ****       if (move_acce == 0) {
 1074              		.loc 1 50 14 view .LVU256
 1075 006e 3246     		mov	r2, r6
 1076 0070 3B46     		mov	r3, r7
 1077 0072 FFF7FEFF 		bl	__aeabi_dmul
 1078              	.LVL112:
 1079 0076 0646     		mov	r6, r0
 1080              	.LVL113:
  50:src/unit/motor_drive/motor_drive.cpp ****       if (move_acce == 0) {
 1081              		.loc 1 50 14 view .LVU257
 1082 0078 0F46     		mov	r7, r1
 1083              	.LVL114:
  51:src/unit/motor_drive/motor_drive.cpp ****             move_speed = target_move_speed;
 1084              		.loc 1 51 7 is_stmt 1 view .LVU258
 1085 007a B5EE408A 		vcmp.f32	s16, #0
 1086 007e F1EE10FA 		vmrs	APSR_nzcv, FPSCR
 1087 0082 22D1     		bne	.L68
  52:src/unit/motor_drive/motor_drive.cpp ****       } else if (target_move_speed > move_speed) {
 1088              		.loc 1 52 13 view .LVU259
  52:src/unit/motor_drive/motor_drive.cpp ****       } else if (target_move_speed > move_speed) {
 1089              		.loc 1 52 24 is_stmt 0 view .LVU260
 1090 0084 B44B     		ldr	r3, .L125+8
 1091 0086 C3ED008A 		vstr.32	s17, [r3]
 1092              	.L69:
  61:src/unit/motor_drive/motor_drive.cpp ****       float vel_y = move_speed * MyMath::sinDeg(target_move_dir);
 1093              		.loc 1 61 7 is_stmt 1 view .LVU261
  61:src/unit/motor_drive/motor_drive.cpp ****       float vel_y = move_speed * MyMath::sinDeg(target_move_dir);
 1094              		.loc 1 61 48 is_stmt 0 view .LVU262
 1095 008a 4846     		mov	r0, r9
 1096 008c FFF7FEFF 		bl	cosDeg
 1097              	.LVL115:
  61:src/unit/motor_drive/motor_drive.cpp ****       float vel_y = move_speed * MyMath::sinDeg(target_move_dir);
 1098              		.loc 1 61 32 view .LVU263
 1099 0090 B14D     		ldr	r5, .L125+8
 1100 0092 D5ED00AA 		vldr.32	s21, [r5]
  61:src/unit/motor_drive/motor_drive.cpp ****       float vel_y = move_speed * MyMath::sinDeg(target_move_dir);
 1101              		.loc 1 61 64 view .LVU264
 1102 0096 6AEE80AA 		vmul.f32	s21, s21, s0
 1103              	.LVL116:
ARM GAS  /var/folders/5c/srt4fy4j1pd641bjfx75k5000000gn/T//ccNEUMKe.s 			page 25


  62:src/unit/motor_drive/motor_drive.cpp **** 
 1104              		.loc 1 62 7 is_stmt 1 view .LVU265
  62:src/unit/motor_drive/motor_drive.cpp **** 
 1105              		.loc 1 62 48 is_stmt 0 view .LVU266
 1106 009a 4846     		mov	r0, r9
 1107 009c FFF7FEFF 		bl	sinDeg
 1108              	.LVL117:
  62:src/unit/motor_drive/motor_drive.cpp **** 
 1109              		.loc 1 62 32 view .LVU267
 1110 00a0 95ED00AA 		vldr.32	s20, [r5]
  62:src/unit/motor_drive/motor_drive.cpp **** 
 1111              		.loc 1 62 64 view .LVU268
 1112 00a4 2AEE00AA 		vmul.f32	s20, s20, s0
 1113              	.LVL118:
  64:src/unit/motor_drive/motor_drive.cpp ****       for (uint8_t i = 0; i < MOTOR_QTY; i++) {
 1114              		.loc 1 64 7 is_stmt 1 view .LVU269
  64:src/unit/motor_drive/motor_drive.cpp ****       for (uint8_t i = 0; i < MOTOR_QTY; i++) {
 1115              		.loc 1 64 18 is_stmt 0 view .LVU270
 1116 00a8 04F56B69 		add	r9, r4, #3760
  64:src/unit/motor_drive/motor_drive.cpp ****       for (uint8_t i = 0; i < MOTOR_QTY; i++) {
 1117              		.loc 1 64 20 view .LVU271
 1118 00ac D4F8183F 		ldr	r3, [r4, #3864]
  64:src/unit/motor_drive/motor_drive.cpp ****       for (uint8_t i = 0; i < MOTOR_QTY; i++) {
 1119              		.loc 1 64 19 view .LVU272
 1120 00b0 B3F90030 		ldrsh	r3, [r3]
 1121 00b4 00EE103A 		vmov	s0, r3	@ int
  64:src/unit/motor_drive/motor_drive.cpp ****       for (uint8_t i = 0; i < MOTOR_QTY; i++) {
 1122              		.loc 1 64 18 view .LVU273
 1123 00b8 F8EEC90A 		vcvt.f32.s32	s1, s18
 1124 00bc B8EEC00A 		vcvt.f32.s32	s0, s0
 1125 00c0 4846     		mov	r0, r9
 1126 00c2 FFF7FEFF 		bl	_ZN3PID7ComputeEff
 1127              	.LVL119:
 1128              	.LBB8:
  65:src/unit/motor_drive/motor_drive.cpp ****             float robot_rotation_speed = pid.Get();
 1129              		.loc 1 65 20 view .LVU274
 1130 00c6 0025     		movs	r5, #0
 1131 00c8 83E0     		b	.L75
 1132              	.LVL120:
 1133              	.L68:
  65:src/unit/motor_drive/motor_drive.cpp ****             float robot_rotation_speed = pid.Get();
 1134              		.loc 1 65 20 view .LVU275
 1135              	.LBE8:
  53:src/unit/motor_drive/motor_drive.cpp ****             move_speed += speed_change;
 1136              		.loc 1 53 14 is_stmt 1 view .LVU276
  53:src/unit/motor_drive/motor_drive.cpp ****             move_speed += speed_change;
 1137              		.loc 1 53 36 is_stmt 0 view .LVU277
 1138 00ca A34B     		ldr	r3, .L125+8
 1139 00cc D3ED007A 		vldr.32	s15, [r3]
  53:src/unit/motor_drive/motor_drive.cpp ****             move_speed += speed_change;
 1140              		.loc 1 53 14 view .LVU278
 1141 00d0 F4EEE87A 		vcmpe.f32	s15, s17
 1142 00d4 F1EE10FA 		vmrs	APSR_nzcv, FPSCR
 1143 00d8 15D5     		bpl	.L112
  54:src/unit/motor_drive/motor_drive.cpp ****             if (move_speed > target_move_speed) move_speed = target_move_speed;
 1144              		.loc 1 54 13 is_stmt 1 view .LVU279
  54:src/unit/motor_drive/motor_drive.cpp ****             if (move_speed > target_move_speed) move_speed = target_move_speed;
ARM GAS  /var/folders/5c/srt4fy4j1pd641bjfx75k5000000gn/T//ccNEUMKe.s 			page 26


 1145              		.loc 1 54 24 is_stmt 0 view .LVU280
 1146 00da 17EE900A 		vmov	r0, s15
 1147 00de FFF7FEFF 		bl	__aeabi_f2d
 1148              	.LVL121:
 1149 00e2 3246     		mov	r2, r6
 1150 00e4 3B46     		mov	r3, r7
 1151 00e6 FFF7FEFF 		bl	__aeabi_dadd
 1152              	.LVL122:
 1153 00ea FFF7FEFF 		bl	__aeabi_d2f
 1154              	.LVL123:
 1155 00ee 07EE900A 		vmov	s15, r0
 1156 00f2 994B     		ldr	r3, .L125+8
 1157 00f4 1860     		str	r0, [r3]	@ float
  55:src/unit/motor_drive/motor_drive.cpp ****       } else if (target_move_speed < move_speed) {
 1158              		.loc 1 55 13 is_stmt 1 view .LVU281
 1159 00f6 F4EEE87A 		vcmpe.f32	s15, s17
 1160 00fa F1EE10FA 		vmrs	APSR_nzcv, FPSCR
 1161 00fe C4DD     		ble	.L69
  55:src/unit/motor_drive/motor_drive.cpp ****       } else if (target_move_speed < move_speed) {
 1162              		.loc 1 55 49 discriminator 1 view .LVU282
  55:src/unit/motor_drive/motor_drive.cpp ****       } else if (target_move_speed < move_speed) {
 1163              		.loc 1 55 60 is_stmt 0 discriminator 1 view .LVU283
 1164 0100 C3ED008A 		vstr.32	s17, [r3]
 1165 0104 C1E7     		b	.L69
 1166              	.L112:
  56:src/unit/motor_drive/motor_drive.cpp ****             move_speed -= speed_change;
 1167              		.loc 1 56 14 is_stmt 1 view .LVU284
 1168 0106 F4EEE87A 		vcmpe.f32	s15, s17
 1169 010a F1EE10FA 		vmrs	APSR_nzcv, FPSCR
 1170 010e BCDD     		ble	.L69
  57:src/unit/motor_drive/motor_drive.cpp ****             if (move_speed < target_move_speed) move_speed = target_move_speed;
 1171              		.loc 1 57 13 view .LVU285
  57:src/unit/motor_drive/motor_drive.cpp ****             if (move_speed < target_move_speed) move_speed = target_move_speed;
 1172              		.loc 1 57 24 is_stmt 0 view .LVU286
 1173 0110 17EE900A 		vmov	r0, s15
 1174 0114 FFF7FEFF 		bl	__aeabi_f2d
 1175              	.LVL124:
 1176 0118 3246     		mov	r2, r6
 1177 011a 3B46     		mov	r3, r7
 1178 011c FFF7FEFF 		bl	__aeabi_dsub
 1179              	.LVL125:
 1180 0120 FFF7FEFF 		bl	__aeabi_d2f
 1181              	.LVL126:
 1182 0124 07EE900A 		vmov	s15, r0
 1183 0128 8B4B     		ldr	r3, .L125+8
 1184 012a 1860     		str	r0, [r3]	@ float
  58:src/unit/motor_drive/motor_drive.cpp ****       }
 1185              		.loc 1 58 13 is_stmt 1 view .LVU287
 1186 012c F4EEE87A 		vcmpe.f32	s15, s17
 1187 0130 F1EE10FA 		vmrs	APSR_nzcv, FPSCR
 1188 0134 A9D5     		bpl	.L69
  58:src/unit/motor_drive/motor_drive.cpp ****       }
 1189              		.loc 1 58 49 discriminator 1 view .LVU288
  58:src/unit/motor_drive/motor_drive.cpp ****       }
 1190              		.loc 1 58 60 is_stmt 0 discriminator 1 view .LVU289
 1191 0136 C3ED008A 		vstr.32	s17, [r3]
 1192 013a A6E7     		b	.L69
ARM GAS  /var/folders/5c/srt4fy4j1pd641bjfx75k5000000gn/T//ccNEUMKe.s 			page 27


 1193              	.LVL127:
 1194              	.L117:
 1195              	.LBB11:
 1196              	.LBB9:
  67:src/unit/motor_drive/motor_drive.cpp ****             if (rotation_center == FRONT) {
 1197              		.loc 1 67 17 discriminator 2 view .LVU290
 1198 013c F1EE407A 		vneg.f32	s15, s0
 1199 0140 55E0     		b	.L76
 1200              	.LVL128:
 1201              	.L118:
  69:src/unit/motor_drive/motor_drive.cpp ****                   if (i == 0 || i == 3) robot_rotation_speed = 0;
 1202              		.loc 1 69 19 is_stmt 1 view .LVU291
  69:src/unit/motor_drive/motor_drive.cpp ****                   if (i == 0 || i == 3) robot_rotation_speed = 0;
 1203              		.loc 1 69 40 is_stmt 0 view .LVU292
 1204 0142 38EE088A 		vadd.f32	s16, s16, s16
 1205              	.LVL129:
  70:src/unit/motor_drive/motor_drive.cpp ****             } else if (rotation_center == RIGHT) {
 1206              		.loc 1 70 19 is_stmt 1 view .LVU293
 1207 0146 002D     		cmp	r5, #0
 1208 0148 00F08480 		beq	.L97
  70:src/unit/motor_drive/motor_drive.cpp ****             } else if (rotation_center == RIGHT) {
 1209              		.loc 1 70 30 is_stmt 0 discriminator 2 view .LVU294
 1210 014c 032D     		cmp	r5, #3
 1211 014e 00F08480 		beq	.L115
 1212              	.LVL130:
 1213              	.L80:
  81:src/unit/motor_drive/motor_drive.cpp ****       }
 1214              		.loc 1 81 13 is_stmt 1 view .LVU295
  81:src/unit/motor_drive/motor_drive.cpp ****       }
 1215              		.loc 1 81 81 is_stmt 0 view .LVU296
 1216 0152 5A26     		movs	r6, #90
 1217 0154 05FB06F6 		mul	r6, r5, r6
  81:src/unit/motor_drive/motor_drive.cpp ****       }
 1218              		.loc 1 81 71 view .LVU297
 1219 0158 2D36     		adds	r6, r6, #45
 1220 015a 3046     		mov	r0, r6
 1221 015c FFF7FEFF 		bl	sinDeg
 1222              	.LVL131:
  81:src/unit/motor_drive/motor_drive.cpp ****       }
 1223              		.loc 1 81 55 view .LVU298
 1224 0160 B1EE409A 		vneg.f32	s18, s0
  81:src/unit/motor_drive/motor_drive.cpp ****       }
 1225              		.loc 1 81 103 view .LVU299
 1226 0164 2D20     		movs	r0, #45
 1227 0166 FFF7FEFF 		bl	cosDeg
 1228              	.LVL132:
  81:src/unit/motor_drive/motor_drive.cpp ****       }
 1229              		.loc 1 81 87 view .LVU300
 1230 016a 29EE009A 		vmul.f32	s18, s18, s0
  81:src/unit/motor_drive/motor_drive.cpp ****       }
 1231              		.loc 1 81 108 view .LVU301
 1232 016e 29EE2A9A 		vmul.f32	s18, s18, s21
  81:src/unit/motor_drive/motor_drive.cpp ****       }
 1233              		.loc 1 81 134 view .LVU302
 1234 0172 3046     		mov	r0, r6
 1235 0174 FFF7FEFF 		bl	cosDeg
 1236              	.LVL133:
ARM GAS  /var/folders/5c/srt4fy4j1pd641bjfx75k5000000gn/T//ccNEUMKe.s 			page 28


 1237 0178 F0EE408A 		vmov.f32	s17, s0
  81:src/unit/motor_drive/motor_drive.cpp ****       }
 1238              		.loc 1 81 166 view .LVU303
 1239 017c 2D20     		movs	r0, #45
 1240 017e FFF7FEFF 		bl	cosDeg
 1241              	.LVL134:
  81:src/unit/motor_drive/motor_drive.cpp ****       }
 1242              		.loc 1 81 150 view .LVU304
 1243 0182 68EE808A 		vmul.f32	s17, s17, s0
  81:src/unit/motor_drive/motor_drive.cpp ****       }
 1244              		.loc 1 81 171 view .LVU305
 1245 0186 68EE8A8A 		vmul.f32	s17, s17, s20
  81:src/unit/motor_drive/motor_drive.cpp ****       }
 1246              		.loc 1 81 117 view .LVU306
 1247 018a 79EE287A 		vadd.f32	s15, s18, s17
 1248 018e 17EE900A 		vmov	r0, s15
 1249 0192 FFF7FEFF 		bl	__aeabi_f2d
 1250              	.LVL135:
 1251 0196 0646     		mov	r6, r0
 1252 0198 0F46     		mov	r7, r1
  81:src/unit/motor_drive/motor_drive.cpp ****       }
 1253              		.loc 1 81 192 view .LVU307
 1254 019a 18EE100A 		vmov	r0, s16
 1255 019e FFF7FEFF 		bl	__aeabi_f2d
 1256              	.LVL136:
  81:src/unit/motor_drive/motor_drive.cpp ****       }
 1257              		.loc 1 81 190 view .LVU308
 1258 01a2 6BA3     		adr	r3, .L125
 1259 01a4 D3E90023 		ldrd	r2, [r3]
 1260 01a8 FFF7FEFF 		bl	__aeabi_dmul
 1261              	.LVL137:
 1262 01ac 0246     		mov	r2, r0
 1263 01ae 0B46     		mov	r3, r1
  81:src/unit/motor_drive/motor_drive.cpp ****       }
 1264              		.loc 1 81 180 view .LVU309
 1265 01b0 3046     		mov	r0, r6
 1266 01b2 3946     		mov	r1, r7
 1267 01b4 FFF7FEFF 		bl	__aeabi_dadd
 1268              	.LVL138:
  81:src/unit/motor_drive/motor_drive.cpp ****       }
 1269              		.loc 1 81 48 view .LVU310
 1270 01b8 0022     		movs	r2, #0
 1271 01ba 684B     		ldr	r3, .L125+12
 1272 01bc FFF7FEFF 		bl	__aeabi_dmul
 1273              	.LVL139:
 1274 01c0 FFF7FEFF 		bl	__aeabi_d2f
 1275              	.LVL140:
  81:src/unit/motor_drive/motor_drive.cpp ****       }
 1276              		.loc 1 81 29 view .LVU311
 1277 01c4 08AB     		add	r3, sp, #32
 1278 01c6 03EB8503 		add	r3, r3, r5, lsl #2
 1279 01ca 43F8100C 		str	r0, [r3, #-16]	@ float
 1280              	.LBE9:
  65:src/unit/motor_drive/motor_drive.cpp ****             float robot_rotation_speed = pid.Get();
 1281              		.loc 1 65 7 is_stmt 1 view .LVU312
 1282 01ce 0135     		adds	r5, r5, #1
 1283              	.LVL141:
ARM GAS  /var/folders/5c/srt4fy4j1pd641bjfx75k5000000gn/T//ccNEUMKe.s 			page 29


  65:src/unit/motor_drive/motor_drive.cpp ****             float robot_rotation_speed = pid.Get();
 1284              		.loc 1 65 7 is_stmt 0 view .LVU313
 1285 01d0 EDB2     		uxtb	r5, r5
 1286              	.LVL142:
 1287              	.L75:
  65:src/unit/motor_drive/motor_drive.cpp ****             float robot_rotation_speed = pid.Get();
 1288              		.loc 1 65 29 is_stmt 1 discriminator 2 view .LVU314
 1289 01d2 032D     		cmp	r5, #3
 1290 01d4 44D8     		bhi	.L116
 1291              	.LBB10:
  66:src/unit/motor_drive/motor_drive.cpp ****             if (abs(robot_rotation_speed) > rotation_speed && rotation_speed != 0) robot_rotation_s
 1292              		.loc 1 66 13 view .LVU315
  66:src/unit/motor_drive/motor_drive.cpp ****             if (abs(robot_rotation_speed) > rotation_speed && rotation_speed != 0) robot_rotation_s
 1293              		.loc 1 66 49 is_stmt 0 view .LVU316
 1294 01d6 4846     		mov	r0, r9
 1295 01d8 FFF7FEFF 		bl	_ZN3PID3GetEv
 1296              	.LVL143:
 1297 01dc B0EE408A 		vmov.f32	s16, s0
 1298              	.LVL144:
  67:src/unit/motor_drive/motor_drive.cpp ****             if (rotation_center == FRONT) {
 1299              		.loc 1 67 13 is_stmt 1 view .LVU317
  67:src/unit/motor_drive/motor_drive.cpp ****             if (rotation_center == FRONT) {
 1300              		.loc 1 67 17 is_stmt 0 view .LVU318
 1301 01e0 B5EEC00A 		vcmpe.f32	s0, #0
 1302 01e4 F1EE10FA 		vmrs	APSR_nzcv, FPSCR
 1303 01e8 A8DD     		ble	.L117
 1304 01ea F0EE407A 		vmov.f32	s15, s0
 1305              	.L76:
  67:src/unit/motor_drive/motor_drive.cpp ****             if (rotation_center == FRONT) {
 1306              		.loc 1 67 13 discriminator 4 view .LVU319
 1307 01ee F4EEE97A 		vcmpe.f32	s15, s19
 1308 01f2 F1EE10FA 		vmrs	APSR_nzcv, FPSCR
 1309 01f6 08DD     		ble	.L77
  67:src/unit/motor_drive/motor_drive.cpp ****             if (rotation_center == FRONT) {
 1310              		.loc 1 67 60 discriminator 5 view .LVU320
 1311 01f8 F5EE409A 		vcmp.f32	s19, #0
 1312 01fc F1EE10FA 		vmrs	APSR_nzcv, FPSCR
 1313 0200 03D0     		beq	.L77
  67:src/unit/motor_drive/motor_drive.cpp ****             if (rotation_center == FRONT) {
 1314              		.loc 1 67 84 is_stmt 1 discriminator 10 view .LVU321
  67:src/unit/motor_drive/motor_drive.cpp ****             if (rotation_center == FRONT) {
 1315              		.loc 1 67 151 is_stmt 0 discriminator 10 view .LVU322
 1316 0202 87EE887A 		vdiv.f32	s14, s15, s16
  67:src/unit/motor_drive/motor_drive.cpp ****             if (rotation_center == FRONT) {
 1317              		.loc 1 67 105 discriminator 10 view .LVU323
 1318 0206 27EE298A 		vmul.f32	s16, s14, s19
 1319              	.LVL145:
 1320              	.L77:
  68:src/unit/motor_drive/motor_drive.cpp ****                   robot_rotation_speed *= 2;
 1321              		.loc 1 68 13 is_stmt 1 view .LVU324
 1322 020a B8F1010F 		cmp	r8, #1
 1323 020e 98D0     		beq	.L118
  71:src/unit/motor_drive/motor_drive.cpp ****                   robot_rotation_speed *= 2;
 1324              		.loc 1 71 20 view .LVU325
 1325 0210 B8F1020F 		cmp	r8, #2
 1326 0214 0ED0     		beq	.L119
  74:src/unit/motor_drive/motor_drive.cpp ****                   robot_rotation_speed *= 2;
ARM GAS  /var/folders/5c/srt4fy4j1pd641bjfx75k5000000gn/T//ccNEUMKe.s 			page 30


 1327              		.loc 1 74 20 view .LVU326
 1328 0216 B8F1030F 		cmp	r8, #3
 1329 021a 12D0     		beq	.L120
  77:src/unit/motor_drive/motor_drive.cpp ****                   robot_rotation_speed *= 2;
 1330              		.loc 1 77 20 view .LVU327
 1331 021c B8F1040F 		cmp	r8, #4
 1332 0220 97D1     		bne	.L80
  78:src/unit/motor_drive/motor_drive.cpp ****                   if (i == 2 || i == 3) robot_rotation_speed = 0;
 1333              		.loc 1 78 19 view .LVU328
  78:src/unit/motor_drive/motor_drive.cpp ****                   if (i == 2 || i == 3) robot_rotation_speed = 0;
 1334              		.loc 1 78 40 is_stmt 0 view .LVU329
 1335 0222 38EE088A 		vadd.f32	s16, s16, s16
 1336              	.LVL146:
  79:src/unit/motor_drive/motor_drive.cpp ****             }
 1337              		.loc 1 79 19 is_stmt 1 view .LVU330
  79:src/unit/motor_drive/motor_drive.cpp ****             }
 1338              		.loc 1 79 30 is_stmt 0 view .LVU331
 1339 0226 AB1E     		subs	r3, r5, #2
 1340 0228 DBB2     		uxtb	r3, r3
  79:src/unit/motor_drive/motor_drive.cpp ****             }
 1341              		.loc 1 79 19 view .LVU332
 1342 022a 012B     		cmp	r3, #1
 1343 022c 91D8     		bhi	.L80
  79:src/unit/motor_drive/motor_drive.cpp ****             }
 1344              		.loc 1 79 62 view .LVU333
 1345 022e 9FED4C8A 		vldr.32	s16, .L125+16
 1346              	.LVL147:
  79:src/unit/motor_drive/motor_drive.cpp ****             }
 1347              		.loc 1 79 62 view .LVU334
 1348 0232 8EE7     		b	.L80
 1349              	.LVL148:
 1350              	.L119:
  72:src/unit/motor_drive/motor_drive.cpp ****                   if (i == 0 || i == 1) robot_rotation_speed = 0;
 1351              		.loc 1 72 19 is_stmt 1 view .LVU335
  72:src/unit/motor_drive/motor_drive.cpp ****                   if (i == 0 || i == 1) robot_rotation_speed = 0;
 1352              		.loc 1 72 40 is_stmt 0 view .LVU336
 1353 0234 38EE088A 		vadd.f32	s16, s16, s16
 1354              	.LVL149:
  73:src/unit/motor_drive/motor_drive.cpp ****             } else if (rotation_center == BACK) {
 1355              		.loc 1 73 19 is_stmt 1 view .LVU337
 1356 0238 012D     		cmp	r5, #1
 1357 023a 8AD8     		bhi	.L80
  73:src/unit/motor_drive/motor_drive.cpp ****             } else if (rotation_center == BACK) {
 1358              		.loc 1 73 62 is_stmt 0 view .LVU338
 1359 023c 9FED488A 		vldr.32	s16, .L125+16
 1360              	.LVL150:
  73:src/unit/motor_drive/motor_drive.cpp ****             } else if (rotation_center == BACK) {
 1361              		.loc 1 73 62 view .LVU339
 1362 0240 87E7     		b	.L80
 1363              	.LVL151:
 1364              	.L120:
  75:src/unit/motor_drive/motor_drive.cpp ****                   if (i == 1 || i == 2) robot_rotation_speed = 0;
 1365              		.loc 1 75 19 is_stmt 1 view .LVU340
  75:src/unit/motor_drive/motor_drive.cpp ****                   if (i == 1 || i == 2) robot_rotation_speed = 0;
 1366              		.loc 1 75 40 is_stmt 0 view .LVU341
 1367 0242 38EE088A 		vadd.f32	s16, s16, s16
 1368              	.LVL152:
ARM GAS  /var/folders/5c/srt4fy4j1pd641bjfx75k5000000gn/T//ccNEUMKe.s 			page 31


  76:src/unit/motor_drive/motor_drive.cpp ****             } else if (rotation_center == LEFT) {
 1369              		.loc 1 76 19 is_stmt 1 view .LVU342
  76:src/unit/motor_drive/motor_drive.cpp ****             } else if (rotation_center == LEFT) {
 1370              		.loc 1 76 30 is_stmt 0 view .LVU343
 1371 0246 6B1E     		subs	r3, r5, #1
 1372 0248 DBB2     		uxtb	r3, r3
  76:src/unit/motor_drive/motor_drive.cpp ****             } else if (rotation_center == LEFT) {
 1373              		.loc 1 76 19 view .LVU344
 1374 024a 012B     		cmp	r3, #1
 1375 024c 81D8     		bhi	.L80
  76:src/unit/motor_drive/motor_drive.cpp ****             } else if (rotation_center == LEFT) {
 1376              		.loc 1 76 62 view .LVU345
 1377 024e 9FED448A 		vldr.32	s16, .L125+16
 1378              	.LVL153:
  76:src/unit/motor_drive/motor_drive.cpp ****             } else if (rotation_center == LEFT) {
 1379              		.loc 1 76 62 view .LVU346
 1380 0252 7EE7     		b	.L80
 1381              	.LVL154:
 1382              	.L97:
  70:src/unit/motor_drive/motor_drive.cpp ****             } else if (rotation_center == RIGHT) {
 1383              		.loc 1 70 62 view .LVU347
 1384 0254 9FED428A 		vldr.32	s16, .L125+16
 1385              	.LVL155:
  70:src/unit/motor_drive/motor_drive.cpp ****             } else if (rotation_center == RIGHT) {
 1386              		.loc 1 70 62 view .LVU348
 1387 0258 7BE7     		b	.L80
 1388              	.LVL156:
 1389              	.L115:
  70:src/unit/motor_drive/motor_drive.cpp ****             } else if (rotation_center == RIGHT) {
 1390              		.loc 1 70 62 view .LVU349
 1391 025a 9FED418A 		vldr.32	s16, .L125+16
 1392              	.LVL157:
  70:src/unit/motor_drive/motor_drive.cpp ****             } else if (rotation_center == RIGHT) {
 1393              		.loc 1 70 62 view .LVU350
 1394 025e 78E7     		b	.L80
 1395              	.LVL158:
 1396              	.L116:
  70:src/unit/motor_drive/motor_drive.cpp ****             } else if (rotation_center == RIGHT) {
 1397              		.loc 1 70 62 view .LVU351
 1398              	.LBE10:
 1399              	.LBE11:
 1400              	.LBB12:
  85:src/unit/motor_drive/motor_drive.cpp ****             if (target_rad_s[i] == 0 || ((pre_target_rad_s[i] / abs(pre_target_rad_s[i])) != (targe
 1401              		.loc 1 85 20 view .LVU352
 1402 0260 0025     		movs	r5, #0
 1403              	.LVL159:
  85:src/unit/motor_drive/motor_drive.cpp ****             if (target_rad_s[i] == 0 || ((pre_target_rad_s[i] / abs(pre_target_rad_s[i])) != (targe
 1404              		.loc 1 85 20 view .LVU353
 1405 0262 46E0     		b	.L84
 1406              	.LVL160:
 1407              	.L123:
  86:src/unit/motor_drive/motor_drive.cpp ****             pre_target_rad_s[i] = target_rad_s[i];
 1408              		.loc 1 86 65 discriminator 4 view .LVU354
 1409 0264 F1EE676A 		vneg.f32	s13, s15
 1410 0268 5CE0     		b	.L86
 1411              	.L124:
  86:src/unit/motor_drive/motor_drive.cpp ****             pre_target_rad_s[i] = target_rad_s[i];
ARM GAS  /var/folders/5c/srt4fy4j1pd641bjfx75k5000000gn/T//ccNEUMKe.s 			page 32


 1412              		.loc 1 86 113 discriminator 8 view .LVU355
 1413 026a F1EE486A 		vneg.f32	s13, s16
 1414 026e 62E0     		b	.L87
 1415              	.L85:
  86:src/unit/motor_drive/motor_drive.cpp ****             pre_target_rad_s[i] = target_rad_s[i];
 1416              		.loc 1 86 137 is_stmt 1 discriminator 11 view .LVU356
  86:src/unit/motor_drive/motor_drive.cpp ****             pre_target_rad_s[i] = target_rad_s[i];
 1417              		.loc 1 86 156 is_stmt 0 discriminator 11 view .LVU357
 1418 0270 6820     		movs	r0, #104
 1419 0272 06FB00F0 		mul	r0, r6, r0
 1420 0276 00F55160 		add	r0, r0, #3344
 1421 027a 2044     		add	r0, r0, r4
 1422 027c FFF7FEFF 		bl	_ZN3PID6ResetIEv
 1423              	.LVL161:
 1424              	.L88:
  87:src/unit/motor_drive/motor_drive.cpp ****             motor_pid[i].Compute(motor_abs_rad_s_[i], abs(target_rad_s[i]));
 1425              		.loc 1 87 13 is_stmt 1 view .LVU358
  87:src/unit/motor_drive/motor_drive.cpp ****             motor_pid[i].Compute(motor_abs_rad_s_[i], abs(target_rad_s[i]));
 1426              		.loc 1 87 33 is_stmt 0 view .LVU359
 1427 0280 384B     		ldr	r3, .L125+20
 1428 0282 03EB8603 		add	r3, r3, r6, lsl #2
 1429 0286 83ED008A 		vstr.32	s16, [r3]
  88:src/unit/motor_drive/motor_drive.cpp ****             if (target_rad_s[i] > 0) {
 1430              		.loc 1 88 13 is_stmt 1 view .LVU360
  88:src/unit/motor_drive/motor_drive.cpp ****             if (target_rad_s[i] > 0) {
 1431              		.loc 1 88 33 is_stmt 0 view .LVU361
 1432 028a 6827     		movs	r7, #104
 1433 028c 06FB07F7 		mul	r7, r6, r7
 1434 0290 07F55167 		add	r7, r7, #3344
 1435 0294 2744     		add	r7, r7, r4
  88:src/unit/motor_drive/motor_drive.cpp ****             if (target_rad_s[i] > 0) {
 1436              		.loc 1 88 34 view .LVU362
 1437 0296 D4F81C3F 		ldr	r3, [r4, #3868]
  88:src/unit/motor_drive/motor_drive.cpp ****             if (target_rad_s[i] > 0) {
 1438              		.loc 1 88 52 view .LVU363
 1439 029a 4FEA8508 		lsl	r8, r5, #2
 1440 029e 03EB8503 		add	r3, r3, r5, lsl #2
  88:src/unit/motor_drive/motor_drive.cpp ****             if (target_rad_s[i] > 0) {
 1441              		.loc 1 88 33 view .LVU364
 1442 02a2 93ED000A 		vldr.32	s0, [r3]
 1443 02a6 B5EEC08A 		vcmpe.f32	s16, #0
 1444 02aa F1EE10FA 		vmrs	APSR_nzcv, FPSCR
 1445 02ae 4ADD     		ble	.L121
 1446 02b0 F0EE480A 		vmov.f32	s1, s16
 1447              	.L89:
  88:src/unit/motor_drive/motor_drive.cpp ****             if (target_rad_s[i] > 0) {
 1448              		.loc 1 88 33 discriminator 4 view .LVU365
 1449 02b4 3846     		mov	r0, r7
 1450 02b6 FFF7FEFF 		bl	_ZN3PID7ComputeEff
 1451              	.LVL162:
  89:src/unit/motor_drive/motor_drive.cpp ****                   power[i] = motor_pid[i].Get();
 1452              		.loc 1 89 13 is_stmt 1 discriminator 4 view .LVU366
 1453 02ba B5EEC08A 		vcmpe.f32	s16, #0
 1454 02be F1EE10FA 		vmrs	APSR_nzcv, FPSCR
 1455 02c2 55DD     		ble	.L113
  90:src/unit/motor_drive/motor_drive.cpp ****                   motor_rad_s_[i] = motor_abs_rad_s_[i];
 1456              		.loc 1 90 19 view .LVU367
ARM GAS  /var/folders/5c/srt4fy4j1pd641bjfx75k5000000gn/T//ccNEUMKe.s 			page 33


  90:src/unit/motor_drive/motor_drive.cpp ****                   motor_rad_s_[i] = motor_abs_rad_s_[i];
 1457              		.loc 1 90 46 is_stmt 0 view .LVU368
 1458 02c4 3846     		mov	r0, r7
 1459 02c6 FFF7FEFF 		bl	_ZN3PID3GetEv
 1460              	.LVL163:
  90:src/unit/motor_drive/motor_drive.cpp ****                   motor_rad_s_[i] = motor_abs_rad_s_[i];
 1461              		.loc 1 90 28 view .LVU369
 1462 02ca 08AB     		add	r3, sp, #32
 1463 02cc 03EB4603 		add	r3, r3, r6, lsl #1
 1464 02d0 BDEEC00A 		vcvt.s32.f32	s0, s0
 1465 02d4 10EE102A 		vmov	r2, s0	@ int
 1466 02d8 23F8182C 		strh	r2, [r3, #-24]	@ movhi
  91:src/unit/motor_drive/motor_drive.cpp ****             } else {
 1467              		.loc 1 91 19 is_stmt 1 view .LVU370
  91:src/unit/motor_drive/motor_drive.cpp ****             } else {
 1468              		.loc 1 91 37 is_stmt 0 view .LVU371
 1469 02dc D4F81C3F 		ldr	r3, [r4, #3868]
  91:src/unit/motor_drive/motor_drive.cpp ****             } else {
 1470              		.loc 1 91 55 view .LVU372
 1471 02e0 4344     		add	r3, r3, r8
 1472 02e2 1B68     		ldr	r3, [r3]	@ float
  91:src/unit/motor_drive/motor_drive.cpp ****             } else {
 1473              		.loc 1 91 35 view .LVU373
 1474 02e4 06F57276 		add	r6, r6, #968
 1475 02e8 04EB8606 		add	r6, r4, r6, lsl #2
 1476 02ec 3360     		str	r3, [r6]	@ float
 1477              	.L92:
  85:src/unit/motor_drive/motor_drive.cpp ****             if (target_rad_s[i] == 0 || ((pre_target_rad_s[i] / abs(pre_target_rad_s[i])) != (targe
 1478              		.loc 1 85 7 is_stmt 1 discriminator 2 view .LVU374
 1479 02ee 0135     		adds	r5, r5, #1
 1480              	.LVL164:
  85:src/unit/motor_drive/motor_drive.cpp ****             if (target_rad_s[i] == 0 || ((pre_target_rad_s[i] / abs(pre_target_rad_s[i])) != (targe
 1481              		.loc 1 85 7 is_stmt 0 discriminator 2 view .LVU375
 1482 02f0 EDB2     		uxtb	r5, r5
 1483              	.LVL165:
 1484              	.L84:
  85:src/unit/motor_drive/motor_drive.cpp ****             if (target_rad_s[i] == 0 || ((pre_target_rad_s[i] / abs(pre_target_rad_s[i])) != (targe
 1485              		.loc 1 85 29 is_stmt 1 discriminator 1 view .LVU376
 1486 02f2 032D     		cmp	r5, #3
 1487 02f4 58D8     		bhi	.L122
  86:src/unit/motor_drive/motor_drive.cpp ****             pre_target_rad_s[i] = target_rad_s[i];
 1488              		.loc 1 86 13 view .LVU377
  86:src/unit/motor_drive/motor_drive.cpp ****             pre_target_rad_s[i] = target_rad_s[i];
 1489              		.loc 1 86 30 is_stmt 0 view .LVU378
 1490 02f6 2E46     		mov	r6, r5
  86:src/unit/motor_drive/motor_drive.cpp ****             pre_target_rad_s[i] = target_rad_s[i];
 1491              		.loc 1 86 31 view .LVU379
 1492 02f8 08AB     		add	r3, sp, #32
 1493 02fa 03EB8503 		add	r3, r3, r5, lsl #2
 1494 02fe 13ED048A 		vldr.32	s16, [r3, #-16]
  86:src/unit/motor_drive/motor_drive.cpp ****             pre_target_rad_s[i] = target_rad_s[i];
 1495              		.loc 1 86 13 view .LVU380
 1496 0302 B5EE408A 		vcmp.f32	s16, #0
 1497 0306 F1EE10FA 		vmrs	APSR_nzcv, FPSCR
 1498 030a B1D0     		beq	.L85
  86:src/unit/motor_drive/motor_drive.cpp ****             pre_target_rad_s[i] = target_rad_s[i];
 1499              		.loc 1 86 61 discriminator 2 view .LVU381
ARM GAS  /var/folders/5c/srt4fy4j1pd641bjfx75k5000000gn/T//ccNEUMKe.s 			page 34


 1500 030c 154B     		ldr	r3, .L125+20
 1501 030e 03EB8503 		add	r3, r3, r5, lsl #2
 1502 0312 D3ED007A 		vldr.32	s15, [r3]
  86:src/unit/motor_drive/motor_drive.cpp ****             pre_target_rad_s[i] = target_rad_s[i];
 1503              		.loc 1 86 65 discriminator 2 view .LVU382
 1504 0316 F5EEC07A 		vcmpe.f32	s15, #0
 1505 031a F1EE10FA 		vmrs	APSR_nzcv, FPSCR
 1506 031e A1DD     		ble	.L123
  86:src/unit/motor_drive/motor_drive.cpp ****             pre_target_rad_s[i] = target_rad_s[i];
 1507              		.loc 1 86 65 view .LVU383
 1508 0320 F0EE676A 		vmov.f32	s13, s15
 1509              	.L86:
  86:src/unit/motor_drive/motor_drive.cpp ****             pre_target_rad_s[i] = target_rad_s[i];
 1510              		.loc 1 86 63 discriminator 6 view .LVU384
 1511 0324 87EEA67A 		vdiv.f32	s14, s15, s13
  86:src/unit/motor_drive/motor_drive.cpp ****             pre_target_rad_s[i] = target_rad_s[i];
 1512              		.loc 1 86 113 discriminator 6 view .LVU385
 1513 0328 B5EEC08A 		vcmpe.f32	s16, #0
 1514 032c F1EE10FA 		vmrs	APSR_nzcv, FPSCR
 1515 0330 9BDD     		ble	.L124
  86:src/unit/motor_drive/motor_drive.cpp ****             pre_target_rad_s[i] = target_rad_s[i];
 1516              		.loc 1 86 113 view .LVU386
 1517 0332 F0EE486A 		vmov.f32	s13, s16
 1518              	.L87:
  86:src/unit/motor_drive/motor_drive.cpp ****             pre_target_rad_s[i] = target_rad_s[i];
 1519              		.loc 1 86 111 discriminator 10 view .LVU387
 1520 0336 C8EE267A 		vdiv.f32	s15, s16, s13
  86:src/unit/motor_drive/motor_drive.cpp ****             pre_target_rad_s[i] = target_rad_s[i];
 1521              		.loc 1 86 38 discriminator 10 view .LVU388
 1522 033a B4EE677A 		vcmp.f32	s14, s15
 1523 033e F1EE10FA 		vmrs	APSR_nzcv, FPSCR
 1524 0342 9DD0     		beq	.L88
 1525 0344 94E7     		b	.L85
 1526              	.L121:
  88:src/unit/motor_drive/motor_drive.cpp ****             if (target_rad_s[i] > 0) {
 1527              		.loc 1 88 33 discriminator 2 view .LVU389
 1528 0346 F1EE480A 		vneg.f32	s1, s16
 1529 034a B3E7     		b	.L89
 1530              	.L126:
 1531 034c AFF30080 		.align	3
 1532              	.L125:
 1533 0350 C3F5285C 		.word	1546188227
 1534 0354 8FC2B53F 		.word	1068876431
 1535 0358 00000000 		.word	_ZZN10MotorDrive5DriveEsffsfhE10move_speed
 1536 035c 00004440 		.word	1078198272
 1537 0360 00000000 		.word	0
 1538 0364 00000000 		.word	_ZZN10MotorDrive5DriveEsffsfhE16pre_target_rad_s
 1539 0368 9A999999 		.word	-1717986918
 1540 036c 9999B93F 		.word	1069128089
 1541              	.L113:
  93:src/unit/motor_drive/motor_drive.cpp ****                   motor_rad_s_[i] = -motor_abs_rad_s_[i];
 1542              		.loc 1 93 19 is_stmt 1 view .LVU390
  93:src/unit/motor_drive/motor_drive.cpp ****                   motor_rad_s_[i] = -motor_abs_rad_s_[i];
 1543              		.loc 1 93 47 is_stmt 0 view .LVU391
 1544 0370 3846     		mov	r0, r7
 1545 0372 FFF7FEFF 		bl	_ZN3PID3GetEv
 1546              	.LVL166:
ARM GAS  /var/folders/5c/srt4fy4j1pd641bjfx75k5000000gn/T//ccNEUMKe.s 			page 35


  93:src/unit/motor_drive/motor_drive.cpp ****                   motor_rad_s_[i] = -motor_abs_rad_s_[i];
 1547              		.loc 1 93 30 view .LVU392
 1548 0376 B1EE400A 		vneg.f32	s0, s0
  93:src/unit/motor_drive/motor_drive.cpp ****                   motor_rad_s_[i] = -motor_abs_rad_s_[i];
 1549              		.loc 1 93 28 view .LVU393
 1550 037a 08AB     		add	r3, sp, #32
 1551 037c 03EB4603 		add	r3, r3, r6, lsl #1
 1552 0380 BDEEC00A 		vcvt.s32.f32	s0, s0
 1553 0384 10EE102A 		vmov	r2, s0	@ int
 1554 0388 23F8182C 		strh	r2, [r3, #-24]	@ movhi
  94:src/unit/motor_drive/motor_drive.cpp ****             }
 1555              		.loc 1 94 19 is_stmt 1 view .LVU394
  94:src/unit/motor_drive/motor_drive.cpp ****             }
 1556              		.loc 1 94 38 is_stmt 0 view .LVU395
 1557 038c D4F81C3F 		ldr	r3, [r4, #3868]
  94:src/unit/motor_drive/motor_drive.cpp ****             }
 1558              		.loc 1 94 56 view .LVU396
 1559 0390 4344     		add	r3, r3, r8
  94:src/unit/motor_drive/motor_drive.cpp ****             }
 1560              		.loc 1 94 37 view .LVU397
 1561 0392 D3ED007A 		vldr.32	s15, [r3]
 1562 0396 F1EE677A 		vneg.f32	s15, s15
  94:src/unit/motor_drive/motor_drive.cpp ****             }
 1563              		.loc 1 94 35 view .LVU398
 1564 039a 06F57276 		add	r6, r6, #968
 1565 039e 04EB8606 		add	r6, r4, r6, lsl #2
 1566 03a2 C6ED007A 		vstr.32	s15, [r6]
 1567 03a6 A2E7     		b	.L92
 1568              	.L122:
  94:src/unit/motor_drive/motor_drive.cpp ****             }
 1569              		.loc 1 94 35 view .LVU399
 1570              	.LBE12:
 1571              	.LBB13:
  99:src/unit/motor_drive/motor_drive.cpp ****             motor_ave[i].Compute(power[i]);
 1572              		.loc 1 99 20 view .LVU400
 1573 03a8 0026     		movs	r6, #0
 1574 03aa 1CE0     		b	.L94
 1575              	.LVL167:
 1576              	.L95:
 100:src/unit/motor_drive/motor_drive.cpp ****             power[i] = motor_ave[i].Get();
 1577              		.loc 1 100 13 is_stmt 1 view .LVU401
 100:src/unit/motor_drive/motor_drive.cpp ****             power[i] = motor_ave[i].Get();
 1578              		.loc 1 100 33 is_stmt 0 view .LVU402
 1579 03ac 4FF44E75 		mov	r5, #824
 1580 03b0 06FB05F5 		mul	r5, r6, r5
 1581 03b4 3035     		adds	r5, r5, #48
 1582 03b6 2544     		add	r5, r5, r4
 100:src/unit/motor_drive/motor_drive.cpp ****             power[i] = motor_ave[i].Get();
 1583              		.loc 1 100 41 view .LVU403
 1584 03b8 08AB     		add	r3, sp, #32
 1585 03ba 03EB4607 		add	r7, r3, r6, lsl #1
 100:src/unit/motor_drive/motor_drive.cpp ****             power[i] = motor_ave[i].Get();
 1586              		.loc 1 100 33 view .LVU404
 1587 03be 37F9180C 		ldrsh	r0, [r7, #-24]
 1588 03c2 FFF7FEFF 		bl	__aeabi_i2d
 1589              	.LVL168:
 1590 03c6 41EC100B 		vmov	d0, r0, r1
ARM GAS  /var/folders/5c/srt4fy4j1pd641bjfx75k5000000gn/T//ccNEUMKe.s 			page 36


 1591 03ca 2846     		mov	r0, r5
 1592 03cc FFF7FEFF 		bl	_ZN9MovingAve7ComputeEd
 1593              	.LVL169:
 101:src/unit/motor_drive/motor_drive.cpp ****       }
 1594              		.loc 1 101 13 is_stmt 1 view .LVU405
 101:src/unit/motor_drive/motor_drive.cpp ****       }
 1595              		.loc 1 101 40 is_stmt 0 view .LVU406
 1596 03d0 2846     		mov	r0, r5
 1597 03d2 FFF7FEFF 		bl	_ZN9MovingAve3GetEv
 1598              	.LVL170:
 1599 03d6 51EC100B 		vmov	r0, r1, d0
 101:src/unit/motor_drive/motor_drive.cpp ****       }
 1600              		.loc 1 101 22 view .LVU407
 1601 03da FFF7FEFF 		bl	__aeabi_d2iz
 1602              	.LVL171:
 1603 03de 27F8180C 		strh	r0, [r7, #-24]	@ movhi
  99:src/unit/motor_drive/motor_drive.cpp ****             motor_ave[i].Compute(power[i]);
 1604              		.loc 1 99 7 is_stmt 1 view .LVU408
 1605 03e2 0136     		adds	r6, r6, #1
 1606              	.LVL172:
  99:src/unit/motor_drive/motor_drive.cpp ****             motor_ave[i].Compute(power[i]);
 1607              		.loc 1 99 7 is_stmt 0 view .LVU409
 1608 03e4 F6B2     		uxtb	r6, r6
 1609              	.LVL173:
 1610              	.L94:
  99:src/unit/motor_drive/motor_drive.cpp ****             motor_ave[i].Compute(power[i]);
 1611              		.loc 1 99 29 is_stmt 1 discriminator 2 view .LVU410
 1612 03e6 032E     		cmp	r6, #3
 1613 03e8 E0D9     		bls	.L95
 1614              	.LBE13:
 104:src/unit/motor_drive/motor_drive.cpp ****       moving_vel_y = (WHEEL_R / 2.0f) * (-motor_rad_s_[0] - motor_rad_s_[1] + motor_rad_s_[2] + mot
 1615              		.loc 1 104 7 view .LVU411
 104:src/unit/motor_drive/motor_drive.cpp ****       moving_vel_y = (WHEEL_R / 2.0f) * (-motor_rad_s_[0] - motor_rad_s_[1] + motor_rad_s_[2] + mot
 1616              		.loc 1 104 56 is_stmt 0 view .LVU412
 1617 03ea 04F57263 		add	r3, r4, #3872
 1618 03ee D3ED008A 		vldr.32	s17, [r3]
 104:src/unit/motor_drive/motor_drive.cpp ****       moving_vel_y = (WHEEL_R / 2.0f) * (-motor_rad_s_[0] - motor_rad_s_[1] + motor_rad_s_[2] + mot
 1619              		.loc 1 104 74 view .LVU413
 1620 03f2 04F62473 		addw	r3, r4, #3876
 1621 03f6 93ED00AA 		vldr.32	s20, [r3]
 1622              	.LVL174:
 104:src/unit/motor_drive/motor_drive.cpp ****       moving_vel_y = (WHEEL_R / 2.0f) * (-motor_rad_s_[0] - motor_rad_s_[1] + motor_rad_s_[2] + mot
 1623              		.loc 1 104 58 view .LVU414
 1624 03fa 78EECA7A 		vsub.f32	s15, s17, s20
 104:src/unit/motor_drive/motor_drive.cpp ****       moving_vel_y = (WHEEL_R / 2.0f) * (-motor_rad_s_[0] - motor_rad_s_[1] + motor_rad_s_[2] + mot
 1625              		.loc 1 104 92 view .LVU415
 1626 03fe 04F62873 		addw	r3, r4, #3880
 1627 0402 93ED009A 		vldr.32	s18, [r3]
 104:src/unit/motor_drive/motor_drive.cpp ****       moving_vel_y = (WHEEL_R / 2.0f) * (-motor_rad_s_[0] - motor_rad_s_[1] + motor_rad_s_[2] + mot
 1628              		.loc 1 104 76 view .LVU416
 1629 0406 77EEC97A 		vsub.f32	s15, s15, s18
 104:src/unit/motor_drive/motor_drive.cpp ****       moving_vel_y = (WHEEL_R / 2.0f) * (-motor_rad_s_[0] - motor_rad_s_[1] + motor_rad_s_[2] + mot
 1630              		.loc 1 104 110 view .LVU417
 1631 040a 04F62C73 		addw	r3, r4, #3884
 1632 040e D3ED009A 		vldr.32	s19, [r3]
 1633              	.LVL175:
 104:src/unit/motor_drive/motor_drive.cpp ****       moving_vel_y = (WHEEL_R / 2.0f) * (-motor_rad_s_[0] - motor_rad_s_[1] + motor_rad_s_[2] + mot
ARM GAS  /var/folders/5c/srt4fy4j1pd641bjfx75k5000000gn/T//ccNEUMKe.s 			page 37


 1634              		.loc 1 104 94 view .LVU418
 1635 0412 77EEA97A 		vadd.f32	s15, s15, s19
 1636 0416 17EE900A 		vmov	r0, s15
 1637 041a FFF7FEFF 		bl	__aeabi_f2d
 1638              	.LVL176:
 104:src/unit/motor_drive/motor_drive.cpp ****       moving_vel_y = (WHEEL_R / 2.0f) * (-motor_rad_s_[0] - motor_rad_s_[1] + motor_rad_s_[2] + mot
 1639              		.loc 1 104 39 view .LVU419
 1640 041e 24A3     		adr	r3, .L127
 1641 0420 D3E90023 		ldrd	r2, [r3]
 1642 0424 FFF7FEFF 		bl	__aeabi_dmul
 1643              	.LVL177:
 1644 0428 FFF7FEFF 		bl	__aeabi_d2f
 1645              	.LVL178:
 1646 042c 08EE100A 		vmov	s16, r0
 104:src/unit/motor_drive/motor_drive.cpp ****       moving_vel_y = (WHEEL_R / 2.0f) * (-motor_rad_s_[0] - motor_rad_s_[1] + motor_rad_s_[2] + mot
 1647              		.loc 1 104 20 view .LVU420
 1648 0430 2060     		str	r0, [r4]	@ float
 105:src/unit/motor_drive/motor_drive.cpp ****       moving_speed = MyMath::sqrt(moving_vel_x * moving_vel_x + moving_vel_y * moving_vel_y);
 1649              		.loc 1 105 7 is_stmt 1 view .LVU421
 105:src/unit/motor_drive/motor_drive.cpp ****       moving_speed = MyMath::sqrt(moving_vel_x * moving_vel_x + moving_vel_y * moving_vel_y);
 1650              		.loc 1 105 42 is_stmt 0 view .LVU422
 1651 0432 F1EE688A 		vneg.f32	s17, s17
 105:src/unit/motor_drive/motor_drive.cpp ****       moving_speed = MyMath::sqrt(moving_vel_x * moving_vel_x + moving_vel_y * moving_vel_y);
 1652              		.loc 1 105 59 view .LVU423
 1653 0436 78EECA8A 		vsub.f32	s17, s17, s20
 105:src/unit/motor_drive/motor_drive.cpp ****       moving_speed = MyMath::sqrt(moving_vel_x * moving_vel_x + moving_vel_y * moving_vel_y);
 1654              		.loc 1 105 77 view .LVU424
 1655 043a 39EE289A 		vadd.f32	s18, s18, s17
 105:src/unit/motor_drive/motor_drive.cpp ****       moving_speed = MyMath::sqrt(moving_vel_x * moving_vel_x + moving_vel_y * moving_vel_y);
 1656              		.loc 1 105 95 view .LVU425
 1657 043e 79EE897A 		vadd.f32	s15, s19, s18
 1658 0442 17EE900A 		vmov	r0, s15
 1659 0446 FFF7FEFF 		bl	__aeabi_f2d
 1660              	.LVL179:
 105:src/unit/motor_drive/motor_drive.cpp ****       moving_speed = MyMath::sqrt(moving_vel_x * moving_vel_x + moving_vel_y * moving_vel_y);
 1661              		.loc 1 105 39 view .LVU426
 1662 044a 19A3     		adr	r3, .L127
 1663 044c D3E90023 		ldrd	r2, [r3]
 1664 0450 FFF7FEFF 		bl	__aeabi_dmul
 1665              	.LVL180:
 1666 0454 FFF7FEFF 		bl	__aeabi_d2f
 1667              	.LVL181:
 1668 0458 07EE900A 		vmov	s15, r0
 105:src/unit/motor_drive/motor_drive.cpp ****       moving_speed = MyMath::sqrt(moving_vel_x * moving_vel_x + moving_vel_y * moving_vel_y);
 1669              		.loc 1 105 20 view .LVU427
 1670 045c 6060     		str	r0, [r4, #4]	@ float
 106:src/unit/motor_drive/motor_drive.cpp ****       moving_dir = MyMath::atan2(moving_vel_x, moving_vel_y);
 1671              		.loc 1 106 7 is_stmt 1 view .LVU428
 106:src/unit/motor_drive/motor_drive.cpp ****       moving_dir = MyMath::atan2(moving_vel_x, moving_vel_y);
 1672              		.loc 1 106 48 is_stmt 0 view .LVU429
 1673 045e 28EE088A 		vmul.f32	s16, s16, s16
 106:src/unit/motor_drive/motor_drive.cpp ****       moving_dir = MyMath::atan2(moving_vel_x, moving_vel_y);
 1674              		.loc 1 106 78 view .LVU430
 1675 0462 67EEA77A 		vmul.f32	s15, s15, s15
 106:src/unit/motor_drive/motor_drive.cpp ****       moving_dir = MyMath::atan2(moving_vel_x, moving_vel_y);
 1676              		.loc 1 106 34 view .LVU431
 1677 0466 38EE270A 		vadd.f32	s0, s16, s15
ARM GAS  /var/folders/5c/srt4fy4j1pd641bjfx75k5000000gn/T//ccNEUMKe.s 			page 38


 1678 046a FFF7FEFF 		bl	sqrt
 1679              	.LVL182:
 106:src/unit/motor_drive/motor_drive.cpp ****       moving_dir = MyMath::atan2(moving_vel_x, moving_vel_y);
 1680              		.loc 1 106 20 view .LVU432
 1681 046e 84ED020A 		vstr.32	s0, [r4, #8]
 107:src/unit/motor_drive/motor_drive.cpp **** 
 1682              		.loc 1 107 7 is_stmt 1 view .LVU433
 107:src/unit/motor_drive/motor_drive.cpp **** 
 1683              		.loc 1 107 33 is_stmt 0 view .LVU434
 1684 0472 D4ED010A 		vldr.32	s1, [r4, #4]
 1685 0476 94ED000A 		vldr.32	s0, [r4]
 1686 047a FFF7FEFF 		bl	atan2
 1687              	.LVL183:
 1688 047e 07EE900A 		vmov	s15, r0	@ int
 107:src/unit/motor_drive/motor_drive.cpp **** 
 1689              		.loc 1 107 18 view .LVU435
 1690 0482 F8EEE77A 		vcvt.f32.s32	s15, s15
 1691 0486 C4ED037A 		vstr.32	s15, [r4, #12]
 109:src/unit/motor_drive/motor_drive.cpp **** }
 1692              		.loc 1 109 7 is_stmt 1 view .LVU436
 109:src/unit/motor_drive/motor_drive.cpp **** }
 1693              		.loc 1 109 10 is_stmt 0 view .LVU437
 1694 048a BDF90E30 		ldrsh	r3, [sp, #14]
 1695 048e 0093     		str	r3, [sp]
 1696 0490 BDF90C30 		ldrsh	r3, [sp, #12]
 1697 0494 BDF90A20 		ldrsh	r2, [sp, #10]
 1698 0498 BDF90810 		ldrsh	r1, [sp, #8]
 1699 049c 2046     		mov	r0, r4
 1700 049e FFF7FEFF 		bl	_ZN10MotorDrive3RunEssss
 1701              	.LVL184:
 110:src/unit/motor_drive/motor_drive.cpp **** 
 1702              		.loc 1 110 1 view .LVU438
 1703 04a2 09B0     		add	sp, sp, #36
 1704              	.LCFI9:
 1705              		.cfi_def_cfa_offset 52
 1706              		@ sp needed
 1707 04a4 BDEC068B 		vldm	sp!, {d8-d10}
 1708              	.LCFI10:
 1709              		.cfi_restore 84
 1710              		.cfi_restore 85
 1711              		.cfi_restore 82
 1712              		.cfi_restore 83
 1713              		.cfi_restore 80
 1714              		.cfi_restore 81
 1715              		.cfi_def_cfa_offset 28
 1716 04a8 BDE8F083 		pop	{r4, r5, r6, r7, r8, r9, pc}
 1717              	.LVL185:
 1718              	.L128:
 110:src/unit/motor_drive/motor_drive.cpp **** 
 1719              		.loc 1 110 1 view .LVU439
 1720 04ac AFF30080 		.align	3
 1721              	.L127:
 1722 04b0 9A999999 		.word	-1717986918
 1723 04b4 9999893F 		.word	1065982361
 1724              		.cfi_endproc
 1725              	.LFE253:
 1726              		.fnend
ARM GAS  /var/folders/5c/srt4fy4j1pd641bjfx75k5000000gn/T//ccNEUMKe.s 			page 39


 1728              		.section	.text._ZN10MotorDrive5BrakeEt,"ax",%progbits
 1729              		.align	1
 1730              		.global	_ZN10MotorDrive5BrakeEt
 1731              		.syntax unified
 1732              		.thumb
 1733              		.thumb_func
 1735              	_ZN10MotorDrive5BrakeEt:
 1736              		.fnstart
 1737              	.LVL186:
 1738              	.LFB255:
 147:src/unit/motor_drive/motor_drive.cpp **** 
 148:src/unit/motor_drive/motor_drive.cpp **** void MotorDrive::Brake(uint16_t time) {
 1739              		.loc 1 148 39 is_stmt 1 view -0
 1740              		.cfi_startproc
 1741              		@ args = 0, pretend = 0, frame = 0
 1742              		@ frame_needed = 0, uses_anonymous_args = 0
 1743              		.loc 1 148 39 is_stmt 0 view .LVU441
 1744 0000 38B5     		push	{r3, r4, r5, lr}
 1745              		.save {r3, r4, r5, lr}
 1746              	.LCFI11:
 1747              		.cfi_def_cfa_offset 16
 1748              		.cfi_offset 3, -16
 1749              		.cfi_offset 4, -12
 1750              		.cfi_offset 5, -8
 1751              		.cfi_offset 14, -4
 1752 0002 0446     		mov	r4, r0
 1753 0004 0D46     		mov	r5, r1
 149:src/unit/motor_drive/motor_drive.cpp ****       motor1a_->write(1);
 1754              		.loc 1 149 7 is_stmt 1 view .LVU442
 1755              		.loc 1 149 22 is_stmt 0 view .LVU443
 1756 0006 B7EE000A 		vmov.f32	s0, #1.0e+0
 1757 000a 0069     		ldr	r0, [r0, #16]
 1758              	.LVL187:
 1759              		.loc 1 149 22 view .LVU444
 1760 000c FFF7FEFF 		bl	_ZN12PwmSingleOut5writeEf
 1761              	.LVL188:
 150:src/unit/motor_drive/motor_drive.cpp ****       motor1b_->write(1);
 1762              		.loc 1 150 7 is_stmt 1 view .LVU445
 1763              		.loc 1 150 22 is_stmt 0 view .LVU446
 1764 0010 B7EE000A 		vmov.f32	s0, #1.0e+0
 1765 0014 6069     		ldr	r0, [r4, #20]
 1766 0016 FFF7FEFF 		bl	_ZN12PwmSingleOut5writeEf
 1767              	.LVL189:
 151:src/unit/motor_drive/motor_drive.cpp ****       motor2a_->write(1);
 1768              		.loc 1 151 7 is_stmt 1 view .LVU447
 1769              		.loc 1 151 22 is_stmt 0 view .LVU448
 1770 001a B7EE000A 		vmov.f32	s0, #1.0e+0
 1771 001e A069     		ldr	r0, [r4, #24]
 1772 0020 FFF7FEFF 		bl	_ZN12PwmSingleOut5writeEf
 1773              	.LVL190:
 152:src/unit/motor_drive/motor_drive.cpp ****       motor2b_->write(1);
 1774              		.loc 1 152 7 is_stmt 1 view .LVU449
 1775              		.loc 1 152 22 is_stmt 0 view .LVU450
 1776 0024 B7EE000A 		vmov.f32	s0, #1.0e+0
 1777 0028 E069     		ldr	r0, [r4, #28]
 1778 002a FFF7FEFF 		bl	_ZN12PwmSingleOut5writeEf
 1779              	.LVL191:
ARM GAS  /var/folders/5c/srt4fy4j1pd641bjfx75k5000000gn/T//ccNEUMKe.s 			page 40


 153:src/unit/motor_drive/motor_drive.cpp ****       motor3a_->write(1);
 1780              		.loc 1 153 7 is_stmt 1 view .LVU451
 1781              		.loc 1 153 22 is_stmt 0 view .LVU452
 1782 002e B7EE000A 		vmov.f32	s0, #1.0e+0
 1783 0032 206A     		ldr	r0, [r4, #32]
 1784 0034 FFF7FEFF 		bl	_ZN12PwmSingleOut5writeEf
 1785              	.LVL192:
 154:src/unit/motor_drive/motor_drive.cpp ****       motor3b_->write(1);
 1786              		.loc 1 154 7 is_stmt 1 view .LVU453
 1787              		.loc 1 154 22 is_stmt 0 view .LVU454
 1788 0038 B7EE000A 		vmov.f32	s0, #1.0e+0
 1789 003c 606A     		ldr	r0, [r4, #36]
 1790 003e FFF7FEFF 		bl	_ZN12PwmSingleOut5writeEf
 1791              	.LVL193:
 155:src/unit/motor_drive/motor_drive.cpp ****       motor4a_->write(1);
 1792              		.loc 1 155 7 is_stmt 1 view .LVU455
 1793              		.loc 1 155 22 is_stmt 0 view .LVU456
 1794 0042 B7EE000A 		vmov.f32	s0, #1.0e+0
 1795 0046 A06A     		ldr	r0, [r4, #40]
 1796 0048 FFF7FEFF 		bl	_ZN12PwmSingleOut5writeEf
 1797              	.LVL194:
 156:src/unit/motor_drive/motor_drive.cpp ****       motor4b_->write(1);
 1798              		.loc 1 156 7 is_stmt 1 view .LVU457
 1799              		.loc 1 156 22 is_stmt 0 view .LVU458
 1800 004c B7EE000A 		vmov.f32	s0, #1.0e+0
 1801 0050 E06A     		ldr	r0, [r4, #44]
 1802 0052 FFF7FEFF 		bl	_ZN12PwmSingleOut5writeEf
 1803              	.LVL195:
 157:src/unit/motor_drive/motor_drive.cpp ****       HAL_Delay(time);
 1804              		.loc 1 157 7 is_stmt 1 view .LVU459
 1805              		.loc 1 157 16 is_stmt 0 view .LVU460
 1806 0056 2846     		mov	r0, r5
 1807 0058 FFF7FEFF 		bl	HAL_Delay
 1808              	.LVL196:
 158:src/unit/motor_drive/motor_drive.cpp **** }
 1809              		.loc 1 158 1 view .LVU461
 1810 005c 38BD     		pop	{r3, r4, r5, pc}
 1811              		.loc 1 158 1 view .LVU462
 1812              		.cfi_endproc
 1813              	.LFE255:
 1814              		.fnend
 1816              		.section	.text._ZN10MotorDrive4FreeEv,"ax",%progbits
 1817              		.align	1
 1818              		.global	_ZN10MotorDrive4FreeEv
 1819              		.syntax unified
 1820              		.thumb
 1821              		.thumb_func
 1823              	_ZN10MotorDrive4FreeEv:
 1824              		.fnstart
 1825              	.LVL197:
 1826              	.LFB256:
 159:src/unit/motor_drive/motor_drive.cpp **** 
 160:src/unit/motor_drive/motor_drive.cpp **** void MotorDrive::Free() {
 1827              		.loc 1 160 25 is_stmt 1 view -0
 1828              		.cfi_startproc
 1829              		@ args = 0, pretend = 0, frame = 0
 1830              		@ frame_needed = 0, uses_anonymous_args = 0
ARM GAS  /var/folders/5c/srt4fy4j1pd641bjfx75k5000000gn/T//ccNEUMKe.s 			page 41


 1831              		.loc 1 160 25 is_stmt 0 view .LVU464
 1832 0000 10B5     		push	{r4, lr}
 1833              	.LCFI12:
 1834              		.cfi_def_cfa_offset 8
 1835              		.cfi_offset 4, -8
 1836              		.cfi_offset 14, -4
 1837 0002 2DED028B 		vpush.64	{d8}
 1838              	.LCFI13:
 1839              		.cfi_def_cfa_offset 16
 1840              		.cfi_offset 80, -16
 1841              		.cfi_offset 81, -12
 1842 0006 0446     		mov	r4, r0
 161:src/unit/motor_drive/motor_drive.cpp ****       motor1a_->write(0);
 1843              		.loc 1 161 7 is_stmt 1 view .LVU465
 1844              		.loc 1 161 22 is_stmt 0 view .LVU466
 1845 0008 9FED168A 		vldr.32	s16, .L133
 1846 000c B0EE480A 		vmov.f32	s0, s16
 1847 0010 0069     		ldr	r0, [r0, #16]
 1848              	.LVL198:
 1849              		.loc 1 161 22 view .LVU467
 1850 0012 FFF7FEFF 		bl	_ZN12PwmSingleOut5writeEf
 1851              	.LVL199:
 162:src/unit/motor_drive/motor_drive.cpp ****       motor1b_->write(0);
 1852              		.loc 1 162 7 is_stmt 1 view .LVU468
 1853              		.loc 1 162 22 is_stmt 0 view .LVU469
 1854 0016 B0EE480A 		vmov.f32	s0, s16
 1855 001a 6069     		ldr	r0, [r4, #20]
 1856 001c FFF7FEFF 		bl	_ZN12PwmSingleOut5writeEf
 1857              	.LVL200:
 163:src/unit/motor_drive/motor_drive.cpp ****       motor2a_->write(0);
 1858              		.loc 1 163 7 is_stmt 1 view .LVU470
 1859              		.loc 1 163 22 is_stmt 0 view .LVU471
 1860 0020 B0EE480A 		vmov.f32	s0, s16
 1861 0024 A069     		ldr	r0, [r4, #24]
 1862 0026 FFF7FEFF 		bl	_ZN12PwmSingleOut5writeEf
 1863              	.LVL201:
 164:src/unit/motor_drive/motor_drive.cpp ****       motor2b_->write(0);
 1864              		.loc 1 164 7 is_stmt 1 view .LVU472
 1865              		.loc 1 164 22 is_stmt 0 view .LVU473
 1866 002a B0EE480A 		vmov.f32	s0, s16
 1867 002e E069     		ldr	r0, [r4, #28]
 1868 0030 FFF7FEFF 		bl	_ZN12PwmSingleOut5writeEf
 1869              	.LVL202:
 165:src/unit/motor_drive/motor_drive.cpp ****       motor3a_->write(0);
 1870              		.loc 1 165 7 is_stmt 1 view .LVU474
 1871              		.loc 1 165 22 is_stmt 0 view .LVU475
 1872 0034 B0EE480A 		vmov.f32	s0, s16
 1873 0038 206A     		ldr	r0, [r4, #32]
 1874 003a FFF7FEFF 		bl	_ZN12PwmSingleOut5writeEf
 1875              	.LVL203:
 166:src/unit/motor_drive/motor_drive.cpp ****       motor3b_->write(0);
 1876              		.loc 1 166 7 is_stmt 1 view .LVU476
 1877              		.loc 1 166 22 is_stmt 0 view .LVU477
 1878 003e B0EE480A 		vmov.f32	s0, s16
 1879 0042 606A     		ldr	r0, [r4, #36]
 1880 0044 FFF7FEFF 		bl	_ZN12PwmSingleOut5writeEf
 1881              	.LVL204:
ARM GAS  /var/folders/5c/srt4fy4j1pd641bjfx75k5000000gn/T//ccNEUMKe.s 			page 42


 167:src/unit/motor_drive/motor_drive.cpp ****       motor4a_->write(0);
 1882              		.loc 1 167 7 is_stmt 1 view .LVU478
 1883              		.loc 1 167 22 is_stmt 0 view .LVU479
 1884 0048 B0EE480A 		vmov.f32	s0, s16
 1885 004c A06A     		ldr	r0, [r4, #40]
 1886 004e FFF7FEFF 		bl	_ZN12PwmSingleOut5writeEf
 1887              	.LVL205:
 168:src/unit/motor_drive/motor_drive.cpp ****       motor4b_->write(0);
 1888              		.loc 1 168 7 is_stmt 1 view .LVU480
 1889              		.loc 1 168 22 is_stmt 0 view .LVU481
 1890 0052 B0EE480A 		vmov.f32	s0, s16
 1891 0056 E06A     		ldr	r0, [r4, #44]
 1892 0058 FFF7FEFF 		bl	_ZN12PwmSingleOut5writeEf
 1893              	.LVL206:
 169:src/unit/motor_drive/motor_drive.cpp **** }
 1894              		.loc 1 169 1 view .LVU482
 1895 005c BDEC028B 		vldm	sp!, {d8}
 1896              	.LCFI14:
 1897              		.cfi_restore 80
 1898              		.cfi_restore 81
 1899              		.cfi_def_cfa_offset 8
 1900 0060 10BD     		pop	{r4, pc}
 1901              	.LVL207:
 1902              	.L134:
 1903              		.loc 1 169 1 view .LVU483
 1904 0062 00BF     		.align	2
 1905              	.L133:
 1906 0064 00000000 		.word	0
 1907              		.cfi_endproc
 1908              	.LFE256:
 1909              		.cantunwind
 1910              		.fnend
 1912              		.section	.text._ZN10MotorDrive15CheckConnectionEv,"ax",%progbits
 1913              		.align	1
 1914              		.global	_ZN10MotorDrive15CheckConnectionEv
 1915              		.syntax unified
 1916              		.thumb
 1917              		.thumb_func
 1919              	_ZN10MotorDrive15CheckConnectionEv:
 1920              		.fnstart
 1921              	.LVL208:
 1922              	.LFB257:
 170:src/unit/motor_drive/motor_drive.cpp **** 
 171:src/unit/motor_drive/motor_drive.cpp **** void MotorDrive::CheckConnection() {
 1923              		.loc 1 171 36 is_stmt 1 view -0
 1924              		.cfi_startproc
 1925              		@ args = 0, pretend = 0, frame = 0
 1926              		@ frame_needed = 0, uses_anonymous_args = 0
 1927              		.loc 1 171 36 is_stmt 0 view .LVU485
 1928 0000 10B5     		push	{r4, lr}
 1929              		.save {r4, lr}
 1930              	.LCFI15:
 1931              		.cfi_def_cfa_offset 8
 1932              		.cfi_offset 4, -8
 1933              		.cfi_offset 14, -4
 1934 0002 0446     		mov	r4, r0
 172:src/unit/motor_drive/motor_drive.cpp ****       // 接続チェック
ARM GAS  /var/folders/5c/srt4fy4j1pd641bjfx75k5000000gn/T//ccNEUMKe.s 			page 43


 173:src/unit/motor_drive/motor_drive.cpp ****       motor1a_->sound(700, CHECK_SPEED);
 1935              		.loc 1 173 7 is_stmt 1 view .LVU486
 1936              		.loc 1 173 22 is_stmt 0 view .LVU487
 1937 0004 6422     		movs	r2, #100
 1938 0006 4FF42F71 		mov	r1, #700
 1939 000a 0069     		ldr	r0, [r0, #16]
 1940              	.LVL209:
 1941              		.loc 1 173 22 view .LVU488
 1942 000c FFF7FEFF 		bl	_ZN12PwmSingleOut5soundEtt
 1943              	.LVL210:
 174:src/unit/motor_drive/motor_drive.cpp ****       motor2a_->sound(800, CHECK_SPEED);
 1944              		.loc 1 174 7 is_stmt 1 view .LVU489
 1945              		.loc 1 174 22 is_stmt 0 view .LVU490
 1946 0010 6422     		movs	r2, #100
 1947 0012 4FF44871 		mov	r1, #800
 1948 0016 A069     		ldr	r0, [r4, #24]
 1949 0018 FFF7FEFF 		bl	_ZN12PwmSingleOut5soundEtt
 1950              	.LVL211:
 175:src/unit/motor_drive/motor_drive.cpp ****       motor3a_->sound(900, CHECK_SPEED);
 1951              		.loc 1 175 7 is_stmt 1 view .LVU491
 1952              		.loc 1 175 22 is_stmt 0 view .LVU492
 1953 001c 6422     		movs	r2, #100
 1954 001e 4FF46171 		mov	r1, #900
 1955 0022 206A     		ldr	r0, [r4, #32]
 1956 0024 FFF7FEFF 		bl	_ZN12PwmSingleOut5soundEtt
 1957              	.LVL212:
 176:src/unit/motor_drive/motor_drive.cpp ****       motor4a_->sound(1000, CHECK_SPEED);
 1958              		.loc 1 176 7 is_stmt 1 view .LVU493
 1959              		.loc 1 176 22 is_stmt 0 view .LVU494
 1960 0028 6422     		movs	r2, #100
 1961 002a 4FF47A71 		mov	r1, #1000
 1962 002e A06A     		ldr	r0, [r4, #40]
 1963 0030 FFF7FEFF 		bl	_ZN12PwmSingleOut5soundEtt
 1964              	.LVL213:
 177:src/unit/motor_drive/motor_drive.cpp ****       motor1b_->sound(700, CHECK_SPEED);
 1965              		.loc 1 177 7 is_stmt 1 view .LVU495
 1966              		.loc 1 177 22 is_stmt 0 view .LVU496
 1967 0034 6422     		movs	r2, #100
 1968 0036 4FF42F71 		mov	r1, #700
 1969 003a 6069     		ldr	r0, [r4, #20]
 1970 003c FFF7FEFF 		bl	_ZN12PwmSingleOut5soundEtt
 1971              	.LVL214:
 178:src/unit/motor_drive/motor_drive.cpp ****       motor2b_->sound(800, CHECK_SPEED);
 1972              		.loc 1 178 7 is_stmt 1 view .LVU497
 1973              		.loc 1 178 22 is_stmt 0 view .LVU498
 1974 0040 6422     		movs	r2, #100
 1975 0042 4FF44871 		mov	r1, #800
 1976 0046 E069     		ldr	r0, [r4, #28]
 1977 0048 FFF7FEFF 		bl	_ZN12PwmSingleOut5soundEtt
 1978              	.LVL215:
 179:src/unit/motor_drive/motor_drive.cpp ****       motor3b_->sound(900, CHECK_SPEED);
 1979              		.loc 1 179 7 is_stmt 1 view .LVU499
 1980              		.loc 1 179 22 is_stmt 0 view .LVU500
 1981 004c 6422     		movs	r2, #100
 1982 004e 4FF46171 		mov	r1, #900
 1983 0052 606A     		ldr	r0, [r4, #36]
 1984 0054 FFF7FEFF 		bl	_ZN12PwmSingleOut5soundEtt
ARM GAS  /var/folders/5c/srt4fy4j1pd641bjfx75k5000000gn/T//ccNEUMKe.s 			page 44


 1985              	.LVL216:
 180:src/unit/motor_drive/motor_drive.cpp ****       motor4b_->sound(1000, CHECK_SPEED);
 1986              		.loc 1 180 7 is_stmt 1 view .LVU501
 1987              		.loc 1 180 22 is_stmt 0 view .LVU502
 1988 0058 6422     		movs	r2, #100
 1989 005a 4FF47A71 		mov	r1, #1000
 1990 005e E06A     		ldr	r0, [r4, #44]
 1991 0060 FFF7FEFF 		bl	_ZN12PwmSingleOut5soundEtt
 1992              	.LVL217:
 181:src/unit/motor_drive/motor_drive.cpp **** }...
 1993              		.loc 1 181 1 view .LVU503
 1994 0064 10BD     		pop	{r4, pc}
 1995              		.loc 1 181 1 view .LVU504
 1996              		.cfi_endproc
 1997              	.LFE257:
 1998              		.fnend
 2000              		.section	.bss._ZZN10MotorDrive5DriveEsffsfhE10move_speed,"aw",%nobits
 2001              		.align	2
 2004              	_ZZN10MotorDrive5DriveEsffsfhE10move_speed:
 2005 0000 00000000 		.space	4
 2006              		.section	.bss._ZZN10MotorDrive5DriveEsffsfhE16pre_target_rad_s,"aw",%nobits
 2007              		.align	2
 2010              	_ZZN10MotorDrive5DriveEsffsfhE16pre_target_rad_s:
 2011 0000 00000000 		.space	16
 2011      00000000 
 2011      00000000 
 2011      00000000 
 2012              		.text
 2013              	.Letext0:
 2014              		.file 3 "/opt/ST/STM32CubeCLT_1.16.0/GNU-tools-for-STM32/arm-none-eabi/include/machine/_default_ty
 2015              		.file 4 "/opt/ST/STM32CubeCLT_1.16.0/GNU-tools-for-STM32/arm-none-eabi/include/sys/_stdint.h"
 2016              		.file 5 "Drivers/CMSIS/Device/ST/STM32F4xx/Include/stm32f446xx.h"
 2017              		.file 6 "/opt/ST/STM32CubeCLT_1.16.0/GNU-tools-for-STM32/lib/gcc/arm-none-eabi/12.3.1/include/stdd
 2018              		.file 7 "Drivers/STM32F4xx_HAL_Driver/Inc/stm32f4xx_hal_def.h"
 2019              		.file 8 "Drivers/STM32F4xx_HAL_Driver/Inc/stm32f4xx_hal_dma.h"
 2020              		.file 9 "Drivers/STM32F4xx_HAL_Driver/Inc/stm32f4xx_hal_tim.h"
 2021              		.file 10 "Lib/MovingAve/MovingAve.hpp"
 2022              		.file 11 "/opt/ST/STM32CubeCLT_1.16.0/GNU-tools-for-STM32/arm-none-eabi/include/c++/12.3.1/cstdio"
 2023              		.file 12 "/opt/ST/STM32CubeCLT_1.16.0/GNU-tools-for-STM32/arm-none-eabi/include/c++/12.3.1/arm-non
 2024              		.file 13 "/opt/ST/STM32CubeCLT_1.16.0/GNU-tools-for-STM32/arm-none-eabi/include/sys/_types.h"
 2025              		.file 14 "/opt/ST/STM32CubeCLT_1.16.0/GNU-tools-for-STM32/arm-none-eabi/include/sys/reent.h"
 2026              		.file 15 "/opt/ST/STM32CubeCLT_1.16.0/GNU-tools-for-STM32/arm-none-eabi/include/sys/lock.h"
 2027              		.file 16 "/opt/ST/STM32CubeCLT_1.16.0/GNU-tools-for-STM32/arm-none-eabi/include/stdio.h"
 2028              		.file 17 "Lib/Timer/Timer.hpp"
 2029              		.file 18 "Lib/pid/pid.hpp"
 2030              		.file 19 "src/unit/motor_drive/motor_drive.hpp"
 2031              		.file 20 "Drivers/STM32F4xx_HAL_Driver/Inc/stm32f4xx_hal.h"
 2032              		.file 21 "Lib/MyMath/MyMath.hpp"
 2033              		.file 22 "Drivers/CMSIS/Device/ST/STM32F4xx/Include/system_stm32f4xx.h"
 2034              		.file 23 "Core/Inc/main.h"
ARM GAS  /var/folders/5c/srt4fy4j1pd641bjfx75k5000000gn/T//ccNEUMKe.s 			page 45

