ARM GAS  /var/folders/5c/srt4fy4j1pd641bjfx75k5000000gn/T//cc4ZdYbC.s 			page 1


   1              		.cpu cortex-m4
   2              		.arch armv7e-m
   3              		.fpu fpv4-sp-d16
   4              		.eabi_attribute 27, 1
   5              		.eabi_attribute 28, 1
   6              		.eabi_attribute 20, 1
   7              		.eabi_attribute 21, 1
   8              		.eabi_attribute 23, 3
   9              		.eabi_attribute 24, 1
  10              		.eabi_attribute 25, 1
  11              		.eabi_attribute 26, 1
  12              		.eabi_attribute 30, 1
  13              		.eabi_attribute 34, 1
  14              		.eabi_attribute 18, 4
  15              		.file	"MyMath.cpp"
  16              		.text
  17              	.Ltext0:
  18              		.cfi_sections	.debug_frame
  19              		.file 1 "lib/MyMath/MyMath.cpp"
  20              		.global	__aeabi_f2d
  21              		.global	__aeabi_dmul
  22              		.global	__aeabi_d2f
  23              		.section	.text.atan2,"ax",%progbits
  24              		.align	1
  25              		.global	atan2
  26              		.syntax unified
  27              		.thumb
  28              		.thumb_func
  30              	atan2:
  31              		.fnstart
  32              	.LVL0:
  33              	.LFB9:
   1:lib/MyMath/MyMath.cpp **** #include "MyMath.hpp"
   2:lib/MyMath/MyMath.cpp **** 
   3:lib/MyMath/MyMath.cpp **** const float _sin[91] = {
   4:lib/MyMath/MyMath.cpp ****     SIN0,
   5:lib/MyMath/MyMath.cpp ****     SIN1,
   6:lib/MyMath/MyMath.cpp ****     SIN2,
   7:lib/MyMath/MyMath.cpp ****     SIN3,
   8:lib/MyMath/MyMath.cpp ****     SIN4,
   9:lib/MyMath/MyMath.cpp ****     SIN5,
  10:lib/MyMath/MyMath.cpp ****     SIN6,
  11:lib/MyMath/MyMath.cpp ****     SIN7,
  12:lib/MyMath/MyMath.cpp ****     SIN8,
  13:lib/MyMath/MyMath.cpp ****     SIN9,
  14:lib/MyMath/MyMath.cpp ****     SIN10,
  15:lib/MyMath/MyMath.cpp ****     SIN11,
  16:lib/MyMath/MyMath.cpp ****     SIN12,
  17:lib/MyMath/MyMath.cpp ****     SIN13,
  18:lib/MyMath/MyMath.cpp ****     SIN14,
  19:lib/MyMath/MyMath.cpp ****     SIN15,
  20:lib/MyMath/MyMath.cpp ****     SIN16,
  21:lib/MyMath/MyMath.cpp ****     SIN17,
  22:lib/MyMath/MyMath.cpp ****     SIN18,
  23:lib/MyMath/MyMath.cpp ****     SIN19,
  24:lib/MyMath/MyMath.cpp ****     SIN20,
  25:lib/MyMath/MyMath.cpp ****     SIN21,
ARM GAS  /var/folders/5c/srt4fy4j1pd641bjfx75k5000000gn/T//cc4ZdYbC.s 			page 2


  26:lib/MyMath/MyMath.cpp ****     SIN22,
  27:lib/MyMath/MyMath.cpp ****     SIN23,
  28:lib/MyMath/MyMath.cpp ****     SIN24,
  29:lib/MyMath/MyMath.cpp ****     SIN25,
  30:lib/MyMath/MyMath.cpp ****     SIN26,
  31:lib/MyMath/MyMath.cpp ****     SIN27,
  32:lib/MyMath/MyMath.cpp ****     SIN28,
  33:lib/MyMath/MyMath.cpp ****     SIN29,
  34:lib/MyMath/MyMath.cpp ****     SIN30,
  35:lib/MyMath/MyMath.cpp ****     SIN31,
  36:lib/MyMath/MyMath.cpp ****     SIN32,
  37:lib/MyMath/MyMath.cpp ****     SIN33,
  38:lib/MyMath/MyMath.cpp ****     SIN34,
  39:lib/MyMath/MyMath.cpp ****     SIN35,
  40:lib/MyMath/MyMath.cpp ****     SIN36,
  41:lib/MyMath/MyMath.cpp ****     SIN37,
  42:lib/MyMath/MyMath.cpp ****     SIN38,
  43:lib/MyMath/MyMath.cpp ****     SIN39,
  44:lib/MyMath/MyMath.cpp ****     SIN40,
  45:lib/MyMath/MyMath.cpp ****     SIN41,
  46:lib/MyMath/MyMath.cpp ****     SIN42,
  47:lib/MyMath/MyMath.cpp ****     SIN43,
  48:lib/MyMath/MyMath.cpp ****     SIN44,
  49:lib/MyMath/MyMath.cpp ****     SIN45,
  50:lib/MyMath/MyMath.cpp ****     SIN46,
  51:lib/MyMath/MyMath.cpp ****     SIN47,
  52:lib/MyMath/MyMath.cpp ****     SIN48,
  53:lib/MyMath/MyMath.cpp ****     SIN49,
  54:lib/MyMath/MyMath.cpp ****     SIN50,
  55:lib/MyMath/MyMath.cpp ****     SIN51,
  56:lib/MyMath/MyMath.cpp ****     SIN52,
  57:lib/MyMath/MyMath.cpp ****     SIN53,
  58:lib/MyMath/MyMath.cpp ****     SIN54,
  59:lib/MyMath/MyMath.cpp ****     SIN55,
  60:lib/MyMath/MyMath.cpp ****     SIN56,
  61:lib/MyMath/MyMath.cpp ****     SIN57,
  62:lib/MyMath/MyMath.cpp ****     SIN58,
  63:lib/MyMath/MyMath.cpp ****     SIN59,
  64:lib/MyMath/MyMath.cpp ****     SIN60,
  65:lib/MyMath/MyMath.cpp ****     SIN61,
  66:lib/MyMath/MyMath.cpp ****     SIN62,
  67:lib/MyMath/MyMath.cpp ****     SIN63,
  68:lib/MyMath/MyMath.cpp ****     SIN64,
  69:lib/MyMath/MyMath.cpp ****     SIN65,
  70:lib/MyMath/MyMath.cpp ****     SIN66,
  71:lib/MyMath/MyMath.cpp ****     SIN67,
  72:lib/MyMath/MyMath.cpp ****     SIN68,
  73:lib/MyMath/MyMath.cpp ****     SIN69,
  74:lib/MyMath/MyMath.cpp ****     SIN70,
  75:lib/MyMath/MyMath.cpp ****     SIN71,
  76:lib/MyMath/MyMath.cpp ****     SIN72,
  77:lib/MyMath/MyMath.cpp ****     SIN73,
  78:lib/MyMath/MyMath.cpp ****     SIN74,
  79:lib/MyMath/MyMath.cpp ****     SIN75,
  80:lib/MyMath/MyMath.cpp ****     SIN76,
  81:lib/MyMath/MyMath.cpp ****     SIN77,
  82:lib/MyMath/MyMath.cpp ****     SIN78,
ARM GAS  /var/folders/5c/srt4fy4j1pd641bjfx75k5000000gn/T//cc4ZdYbC.s 			page 3


  83:lib/MyMath/MyMath.cpp ****     SIN79,
  84:lib/MyMath/MyMath.cpp ****     SIN80,
  85:lib/MyMath/MyMath.cpp ****     SIN81,
  86:lib/MyMath/MyMath.cpp ****     SIN82,
  87:lib/MyMath/MyMath.cpp ****     SIN83,
  88:lib/MyMath/MyMath.cpp ****     SIN84,
  89:lib/MyMath/MyMath.cpp ****     SIN85,
  90:lib/MyMath/MyMath.cpp ****     SIN86,
  91:lib/MyMath/MyMath.cpp ****     SIN87,
  92:lib/MyMath/MyMath.cpp ****     SIN88,
  93:lib/MyMath/MyMath.cpp ****     SIN89,
  94:lib/MyMath/MyMath.cpp ****     SIN90};
  95:lib/MyMath/MyMath.cpp **** 
  96:lib/MyMath/MyMath.cpp **** float MyMath::sinDeg(int deg) {
  97:lib/MyMath/MyMath.cpp ****       // 0~360の値に変換
  98:lib/MyMath/MyMath.cpp ****       deg = NormalizeDeg(deg);
  99:lib/MyMath/MyMath.cpp ****       int theta_cal = deg % 90;
 100:lib/MyMath/MyMath.cpp ****       if (deg >= 90 && deg < 180) {
 101:lib/MyMath/MyMath.cpp ****             theta_cal = 90 - theta_cal;
 102:lib/MyMath/MyMath.cpp ****       }
 103:lib/MyMath/MyMath.cpp ****       if (deg >= 270 && deg < 360) {
 104:lib/MyMath/MyMath.cpp ****             theta_cal = 90 - theta_cal;
 105:lib/MyMath/MyMath.cpp ****       }
 106:lib/MyMath/MyMath.cpp **** 
 107:lib/MyMath/MyMath.cpp ****       if (deg >= 0 && deg <= 90) {
 108:lib/MyMath/MyMath.cpp ****             // 0~90 第一象限
 109:lib/MyMath/MyMath.cpp ****             return _sin[theta_cal];
 110:lib/MyMath/MyMath.cpp ****       } else if (deg > 90 && deg <= 180) {
 111:lib/MyMath/MyMath.cpp ****             // 91~180 第二象限
 112:lib/MyMath/MyMath.cpp ****             return _sin[theta_cal];
 113:lib/MyMath/MyMath.cpp ****       } else if (deg > 180 && deg <= 270) {
 114:lib/MyMath/MyMath.cpp ****             // 181~270 第三象限
 115:lib/MyMath/MyMath.cpp ****             return -_sin[theta_cal];
 116:lib/MyMath/MyMath.cpp ****       } else if (deg > 270 && deg < 360) {
 117:lib/MyMath/MyMath.cpp ****             // 271~360 第四象限
 118:lib/MyMath/MyMath.cpp ****             return -_sin[theta_cal];
 119:lib/MyMath/MyMath.cpp ****       } else {
 120:lib/MyMath/MyMath.cpp ****             return 0;
 121:lib/MyMath/MyMath.cpp ****       }
 122:lib/MyMath/MyMath.cpp **** }
 123:lib/MyMath/MyMath.cpp **** 
 124:lib/MyMath/MyMath.cpp **** float MyMath::cosDeg(int deg) {
 125:lib/MyMath/MyMath.cpp ****       return sinDeg(deg + 90);
 126:lib/MyMath/MyMath.cpp **** }
 127:lib/MyMath/MyMath.cpp **** 
 128:lib/MyMath/MyMath.cpp **** float MyMath::tanDeg(int deg) {
 129:lib/MyMath/MyMath.cpp ****       float rad = Radians(deg);
 130:lib/MyMath/MyMath.cpp ****       if (cosDeg(rad) == 0)
 131:lib/MyMath/MyMath.cpp ****             return 0;
 132:lib/MyMath/MyMath.cpp ****       else
 133:lib/MyMath/MyMath.cpp ****             return sinDeg(rad) / cosDeg(rad);
 134:lib/MyMath/MyMath.cpp **** }
 135:lib/MyMath/MyMath.cpp **** 
 136:lib/MyMath/MyMath.cpp **** float MyMath::sin(float rad) {
 137:lib/MyMath/MyMath.cpp ****       return sinDeg(Degrees(rad));
 138:lib/MyMath/MyMath.cpp **** }
 139:lib/MyMath/MyMath.cpp **** 
ARM GAS  /var/folders/5c/srt4fy4j1pd641bjfx75k5000000gn/T//cc4ZdYbC.s 			page 4


 140:lib/MyMath/MyMath.cpp **** float MyMath::cos(float rad) {
 141:lib/MyMath/MyMath.cpp ****       return cosDeg(Degrees(rad));
 142:lib/MyMath/MyMath.cpp **** }
 143:lib/MyMath/MyMath.cpp **** 
 144:lib/MyMath/MyMath.cpp **** float MyMath::tan(float rad) {
 145:lib/MyMath/MyMath.cpp ****       return tanDeg(Degrees(rad));
 146:lib/MyMath/MyMath.cpp **** }
 147:lib/MyMath/MyMath.cpp **** 
 148:lib/MyMath/MyMath.cpp **** int MyMath::atan2(float y_, float x_) {
  34              		.loc 1 148 39 view -0
  35              		.cfi_startproc
  36              		@ args = 0, pretend = 0, frame = 0
  37              		@ frame_needed = 0, uses_anonymous_args = 0
  38              		.loc 1 148 39 is_stmt 0 view .LVU1
  39 0000 08B5     		push	{r3, lr}
  40              	.LCFI0:
  41              		.cfi_def_cfa_offset 8
  42              		.cfi_offset 3, -8
  43              		.cfi_offset 14, -4
  44 0002 2DED048B 		vpush.64	{d8, d9}
  45              	.LCFI1:
  46              		.cfi_def_cfa_offset 24
  47              		.cfi_offset 80, -24
  48              		.cfi_offset 81, -20
  49              		.cfi_offset 82, -16
  50              		.cfi_offset 83, -12
  51 0006 F0EE408A 		vmov.f32	s17, s0
  52 000a B0EE608A 		vmov.f32	s16, s1
 149:lib/MyMath/MyMath.cpp ****       float x = abs(x_);
  53              		.loc 1 149 7 is_stmt 1 view .LVU2
  54              		.loc 1 149 17 is_stmt 0 view .LVU3
  55 000e F5EEC00A 		vcmpe.f32	s1, #0
  56 0012 F1EE10FA 		vmrs	APSR_nzcv, FPSCR
  57 0016 21DD     		ble	.L55
  58 0018 F0EE609A 		vmov.f32	s19, s1
  59              	.L2:
  60              	.LVL1:
 150:lib/MyMath/MyMath.cpp ****       float y = abs(y_);
  61              		.loc 1 150 7 is_stmt 1 discriminator 4 view .LVU4
  62              		.loc 1 150 17 is_stmt 0 discriminator 4 view .LVU5
  63 001c F5EEC08A 		vcmpe.f32	s17, #0
  64 0020 F1EE10FA 		vmrs	APSR_nzcv, FPSCR
  65 0024 1DDD     		ble	.L56
  66              		.loc 1 150 17 view .LVU6
  67 0026 B0EE689A 		vmov.f32	s18, s17
  68              	.L3:
  69              	.LVL2:
 151:lib/MyMath/MyMath.cpp ****       float z;
  70              		.loc 1 151 7 is_stmt 1 discriminator 4 view .LVU7
 152:lib/MyMath/MyMath.cpp ****       bool c;
  71              		.loc 1 152 7 discriminator 4 view .LVU8
 153:lib/MyMath/MyMath.cpp ****       float a;
  72              		.loc 1 153 7 discriminator 4 view .LVU9
 154:lib/MyMath/MyMath.cpp **** 
 155:lib/MyMath/MyMath.cpp ****       if (x_ == 0 && y_ == 0) {
  73              		.loc 1 155 7 discriminator 4 view .LVU10
  74 002a B5EE408A 		vcmp.f32	s16, #0
ARM GAS  /var/folders/5c/srt4fy4j1pd641bjfx75k5000000gn/T//cc4ZdYbC.s 			page 5


  75 002e F1EE10FA 		vmrs	APSR_nzcv, FPSCR
  76 0032 05D1     		bne	.L4
  77              		.loc 1 155 19 is_stmt 0 discriminator 1 view .LVU11
  78 0034 F5EE408A 		vcmp.f32	s17, #0
  79 0038 F1EE10FA 		vmrs	APSR_nzcv, FPSCR
  80 003c 00F0AA80 		beq	.L33
  81              	.L4:
 156:lib/MyMath/MyMath.cpp ****             a = 0;
 157:lib/MyMath/MyMath.cpp ****       } else if (x_ == 0) {
  82              		.loc 1 157 14 is_stmt 1 view .LVU12
  83 0040 B5EE408A 		vcmp.f32	s16, #0
  84 0044 F1EE10FA 		vmrs	APSR_nzcv, FPSCR
  85 0048 0ED1     		bne	.L6
 158:lib/MyMath/MyMath.cpp ****             if (y_ > 0) {
  86              		.loc 1 158 13 view .LVU13
  87 004a F5EEC08A 		vcmpe.f32	s17, #0
  88 004e F1EE10FA 		vmrs	APSR_nzcv, FPSCR
  89 0052 40F3A880 		ble	.L51
 159:lib/MyMath/MyMath.cpp ****                   a = 90;
  90              		.loc 1 159 21 is_stmt 0 view .LVU14
  91 0056 DFED5A7A 		vldr.32	s15, .L60+8
  92 005a 9DE0     		b	.L5
  93              	.LVL3:
  94              	.L55:
 149:lib/MyMath/MyMath.cpp ****       float y = abs(y_);
  95              		.loc 1 149 17 discriminator 2 view .LVU15
  96 005c F1EE609A 		vneg.f32	s19, s1
  97 0060 DCE7     		b	.L2
  98              	.LVL4:
  99              	.L56:
 150:lib/MyMath/MyMath.cpp ****       float z;
 100              		.loc 1 150 17 discriminator 2 view .LVU16
 101 0062 B1EE689A 		vneg.f32	s18, s17
 102 0066 E0E7     		b	.L3
 103              	.LVL5:
 104              	.L6:
 160:lib/MyMath/MyMath.cpp ****             } else {
 161:lib/MyMath/MyMath.cpp ****                   a = -90;
 162:lib/MyMath/MyMath.cpp ****             }
 163:lib/MyMath/MyMath.cpp ****       } else if (y_ == 0) {
 105              		.loc 1 163 14 is_stmt 1 view .LVU17
 106 0068 F5EE408A 		vcmp.f32	s17, #0
 107 006c F1EE10FA 		vmrs	APSR_nzcv, FPSCR
 108 0070 08D1     		bne	.L8
 164:lib/MyMath/MyMath.cpp ****             if (x_ > 0) {
 109              		.loc 1 164 13 view .LVU18
 110 0072 B5EEC08A 		vcmpe.f32	s16, #0
 111 0076 F1EE10FA 		vmrs	APSR_nzcv, FPSCR
 112 007a 40F39780 		ble	.L52
 165:lib/MyMath/MyMath.cpp ****                   a = 0;
 113              		.loc 1 165 21 is_stmt 0 view .LVU19
 114 007e DFED517A 		vldr.32	s15, .L60+12
 115 0082 89E0     		b	.L5
 116              	.L8:
 166:lib/MyMath/MyMath.cpp ****             } else {
 167:lib/MyMath/MyMath.cpp ****                   a = 180;
 168:lib/MyMath/MyMath.cpp ****             }
ARM GAS  /var/folders/5c/srt4fy4j1pd641bjfx75k5000000gn/T//cc4ZdYbC.s 			page 6


 169:lib/MyMath/MyMath.cpp ****       } else {
 170:lib/MyMath/MyMath.cpp ****             c = y < x;
 117              		.loc 1 170 13 is_stmt 1 view .LVU20
 118              	.LVL6:
 171:lib/MyMath/MyMath.cpp ****             if (c) {
 119              		.loc 1 171 13 view .LVU21
 120 0084 F4EEC99A 		vcmpe.f32	s19, s18
 121 0088 F1EE10FA 		vmrs	APSR_nzcv, FPSCR
 122 008c 64DD     		ble	.L53
 172:lib/MyMath/MyMath.cpp ****                   z = (float)y / x;
 123              		.loc 1 172 19 view .LVU22
 124              		.loc 1 172 21 is_stmt 0 view .LVU23
 125 008e 89EE297A 		vdiv.f32	s14, s18, s19
 126              	.LVL7:
 127              	.L12:
 173:lib/MyMath/MyMath.cpp ****             } else {
 174:lib/MyMath/MyMath.cpp ****                   z = (float)x / y;
 175:lib/MyMath/MyMath.cpp ****             }
 176:lib/MyMath/MyMath.cpp **** 
 177:lib/MyMath/MyMath.cpp ****             // a = z * (-1556 * z + 6072);                     //2次曲線近似
 178:lib/MyMath/MyMath.cpp ****             a = z * (z * (-448 * z - 954) + 5894) * 0.01;  // 3次曲線近似
 128              		.loc 1 178 13 is_stmt 1 view .LVU24
 129              		.loc 1 178 32 is_stmt 0 view .LVU25
 130 0092 DFED4D7A 		vldr.32	s15, .L60+16
 131 0096 67EE277A 		vmul.f32	s15, s14, s15
 132              		.loc 1 178 36 view .LVU26
 133 009a DFED4C6A 		vldr.32	s13, .L60+20
 134 009e 77EEE67A 		vsub.f32	s15, s15, s13
 135              		.loc 1 178 24 view .LVU27
 136 00a2 67EE877A 		vmul.f32	s15, s15, s14
 137              		.loc 1 178 43 view .LVU28
 138 00a6 DFED4A6A 		vldr.32	s13, .L60+24
 139 00aa 77EEA67A 		vadd.f32	s15, s15, s13
 140              		.loc 1 178 19 view .LVU29
 141 00ae 67EE877A 		vmul.f32	s15, s15, s14
 142 00b2 17EE900A 		vmov	r0, s15
 143 00b6 FFF7FEFF 		bl	__aeabi_f2d
 144              	.LVL8:
 145              		.loc 1 178 51 view .LVU30
 146 00ba 3FA3     		adr	r3, .L60
 147 00bc D3E90023 		ldrd	r2, [r3]
 148 00c0 FFF7FEFF 		bl	__aeabi_dmul
 149              	.LVL9:
 150              		.loc 1 178 15 view .LVU31
 151 00c4 FFF7FEFF 		bl	__aeabi_d2f
 152              	.LVL10:
 153 00c8 07EE900A 		vmov	s15, r0
 154              	.LVL11:
 179:lib/MyMath/MyMath.cpp ****             // a = z * (z * (z * (829 * z - 2011) - 58) + 5741);  // 4次曲線近似
 180:lib/MyMath/MyMath.cpp **** 
 181:lib/MyMath/MyMath.cpp ****             if (c) {
 155              		.loc 1 181 13 is_stmt 1 view .LVU32
 156 00cc F4EEC99A 		vcmpe.f32	s19, s18
 157 00d0 F1EE10FA 		vmrs	APSR_nzcv, FPSCR
 158 00d4 0EDD     		ble	.L13
 182:lib/MyMath/MyMath.cpp ****                   if (x_ > 0) {
 159              		.loc 1 182 19 view .LVU33
ARM GAS  /var/folders/5c/srt4fy4j1pd641bjfx75k5000000gn/T//cc4ZdYbC.s 			page 7


 160 00d6 B5EEC08A 		vcmpe.f32	s16, #0
 161 00da F1EE10FA 		vmrs	APSR_nzcv, FPSCR
 162 00de 04DD     		ble	.L15
 183:lib/MyMath/MyMath.cpp ****                         if (y_ < 0) a *= -1;
 163              		.loc 1 183 25 view .LVU34
 164 00e0 F5EEC08A 		vcmpe.f32	s17, #0
 165 00e4 F1EE10FA 		vmrs	APSR_nzcv, FPSCR
 166 00e8 39D4     		bmi	.L57
 167              	.LVL12:
 168              	.L15:
 184:lib/MyMath/MyMath.cpp ****                   }
 185:lib/MyMath/MyMath.cpp ****                   if (x_ < 0) {
 169              		.loc 1 185 19 view .LVU35
 170 00ea B5EEC08A 		vcmpe.f32	s16, #0
 171 00ee F1EE10FA 		vmrs	APSR_nzcv, FPSCR
 172 00f2 37D4     		bmi	.L58
 173              	.L13:
 186:lib/MyMath/MyMath.cpp ****                         if (y_ > 0) a = 180 - a;
 187:lib/MyMath/MyMath.cpp ****                         if (y_ < 0) a = a - 180;
 188:lib/MyMath/MyMath.cpp ****                   }
 189:lib/MyMath/MyMath.cpp ****             }
 190:lib/MyMath/MyMath.cpp **** 
 191:lib/MyMath/MyMath.cpp ****             if (!c) {
 174              		.loc 1 191 13 view .LVU36
 175 00f4 F4EEC99A 		vcmpe.f32	s19, s18
 176 00f8 F1EE10FA 		vmrs	APSR_nzcv, FPSCR
 177 00fc 4CDC     		bgt	.L5
 192:lib/MyMath/MyMath.cpp ****                   if (x_ > 0) {
 178              		.loc 1 192 19 view .LVU37
 179 00fe B5EEC08A 		vcmpe.f32	s16, #0
 180 0102 F1EE10FA 		vmrs	APSR_nzcv, FPSCR
 181 0106 0DDD     		ble	.L22
 193:lib/MyMath/MyMath.cpp ****                         if (y_ > 0) a = 90 - a;
 182              		.loc 1 193 25 view .LVU38
 183 0108 F5EEC08A 		vcmpe.f32	s17, #0
 184 010c F1EE10FA 		vmrs	APSR_nzcv, FPSCR
 185 0110 03DD     		ble	.L24
 186              		.loc 1 193 37 discriminator 1 view .LVU39
 187              		.loc 1 193 39 is_stmt 0 discriminator 1 view .LVU40
 188 0112 9FED2B7A 		vldr.32	s14, .L60+8
 189 0116 77EE677A 		vsub.f32	s15, s14, s15
 190              	.LVL13:
 191              	.L24:
 194:lib/MyMath/MyMath.cpp ****                         if (y_ < 0) a = a - 90;
 192              		.loc 1 194 25 is_stmt 1 view .LVU41
 193 011a F5EEC08A 		vcmpe.f32	s17, #0
 194 011e F1EE10FA 		vmrs	APSR_nzcv, FPSCR
 195 0122 32D4     		bmi	.L59
 196              	.L22:
 195:lib/MyMath/MyMath.cpp ****                   }
 196:lib/MyMath/MyMath.cpp ****                   if (x_ < 0) {
 197              		.loc 1 196 19 view .LVU42
 198 0124 B5EEC08A 		vcmpe.f32	s16, #0
 199 0128 F1EE10FA 		vmrs	APSR_nzcv, FPSCR
 200 012c 34D5     		bpl	.L5
 197:lib/MyMath/MyMath.cpp ****                         if (y_ > 0) a = a + 90;
 201              		.loc 1 197 25 view .LVU43
ARM GAS  /var/folders/5c/srt4fy4j1pd641bjfx75k5000000gn/T//cc4ZdYbC.s 			page 8


 202 012e F5EEC08A 		vcmpe.f32	s17, #0
 203 0132 F1EE10FA 		vmrs	APSR_nzcv, FPSCR
 204 0136 03DD     		ble	.L28
 205              		.loc 1 197 37 discriminator 1 view .LVU44
 206              		.loc 1 197 39 is_stmt 0 discriminator 1 view .LVU45
 207 0138 9FED217A 		vldr.32	s14, .L60+8
 208 013c 77EE877A 		vadd.f32	s15, s15, s14
 209              	.LVL14:
 210              	.L28:
 198:lib/MyMath/MyMath.cpp ****                         if (y_ < 0) a = -a - 90;
 211              		.loc 1 198 25 is_stmt 1 view .LVU46
 212 0140 F5EEC08A 		vcmpe.f32	s17, #0
 213 0144 F1EE10FA 		vmrs	APSR_nzcv, FPSCR
 214 0148 26D5     		bpl	.L5
 215              		.loc 1 198 37 discriminator 1 view .LVU47
 216              		.loc 1 198 41 is_stmt 0 discriminator 1 view .LVU48
 217 014a F1EE677A 		vneg.f32	s15, s15
 218              	.LVL15:
 219              		.loc 1 198 39 discriminator 1 view .LVU49
 220 014e 9FED1C7A 		vldr.32	s14, .L60+8
 221 0152 77EEC77A 		vsub.f32	s15, s15, s14
 222              	.LVL16:
 223              		.loc 1 198 39 discriminator 1 view .LVU50
 224 0156 1FE0     		b	.L5
 225              	.LVL17:
 226              	.L53:
 174:lib/MyMath/MyMath.cpp ****             }
 227              		.loc 1 174 19 is_stmt 1 view .LVU51
 174:lib/MyMath/MyMath.cpp ****             }
 228              		.loc 1 174 21 is_stmt 0 view .LVU52
 229 0158 89EE897A 		vdiv.f32	s14, s19, s18
 230              	.LVL18:
 174:lib/MyMath/MyMath.cpp ****             }
 231              		.loc 1 174 21 view .LVU53
 232 015c 99E7     		b	.L12
 233              	.LVL19:
 234              	.L57:
 183:lib/MyMath/MyMath.cpp ****                   }
 235              		.loc 1 183 37 is_stmt 1 discriminator 1 view .LVU54
 183:lib/MyMath/MyMath.cpp ****                   }
 236              		.loc 1 183 39 is_stmt 0 discriminator 1 view .LVU55
 237 015e F1EE677A 		vneg.f32	s15, s15
 238              	.LVL20:
 183:lib/MyMath/MyMath.cpp ****                   }
 239              		.loc 1 183 39 discriminator 1 view .LVU56
 240 0162 C2E7     		b	.L15
 241              	.L58:
 186:lib/MyMath/MyMath.cpp ****                         if (y_ < 0) a = a - 180;
 242              		.loc 1 186 25 is_stmt 1 view .LVU57
 243 0164 F5EEC08A 		vcmpe.f32	s17, #0
 244 0168 F1EE10FA 		vmrs	APSR_nzcv, FPSCR
 245 016c 03DD     		ble	.L19
 186:lib/MyMath/MyMath.cpp ****                         if (y_ < 0) a = a - 180;
 246              		.loc 1 186 37 discriminator 1 view .LVU58
 186:lib/MyMath/MyMath.cpp ****                         if (y_ < 0) a = a - 180;
 247              		.loc 1 186 39 is_stmt 0 discriminator 1 view .LVU59
 248 016e 9FED197A 		vldr.32	s14, .L60+28
ARM GAS  /var/folders/5c/srt4fy4j1pd641bjfx75k5000000gn/T//cc4ZdYbC.s 			page 9


 249 0172 77EE677A 		vsub.f32	s15, s14, s15
 250              	.LVL21:
 251              	.L19:
 187:lib/MyMath/MyMath.cpp ****                   }
 252              		.loc 1 187 25 is_stmt 1 view .LVU60
 253 0176 F5EEC08A 		vcmpe.f32	s17, #0
 254 017a F1EE10FA 		vmrs	APSR_nzcv, FPSCR
 255 017e B9D5     		bpl	.L13
 187:lib/MyMath/MyMath.cpp ****                   }
 256              		.loc 1 187 37 discriminator 1 view .LVU61
 187:lib/MyMath/MyMath.cpp ****                   }
 257              		.loc 1 187 39 is_stmt 0 discriminator 1 view .LVU62
 258 0180 9FED147A 		vldr.32	s14, .L60+28
 259 0184 77EEC77A 		vsub.f32	s15, s15, s14
 260              	.LVL22:
 187:lib/MyMath/MyMath.cpp ****                   }
 261              		.loc 1 187 39 discriminator 1 view .LVU63
 262 0188 B4E7     		b	.L13
 263              	.L59:
 194:lib/MyMath/MyMath.cpp ****                   }
 264              		.loc 1 194 37 is_stmt 1 discriminator 1 view .LVU64
 194:lib/MyMath/MyMath.cpp ****                   }
 265              		.loc 1 194 39 is_stmt 0 discriminator 1 view .LVU65
 266 018a 9FED0D7A 		vldr.32	s14, .L60+8
 267 018e 77EEC77A 		vsub.f32	s15, s15, s14
 268              	.LVL23:
 194:lib/MyMath/MyMath.cpp ****                   }
 269              		.loc 1 194 39 discriminator 1 view .LVU66
 270 0192 C7E7     		b	.L22
 271              	.LVL24:
 272              	.L33:
 156:lib/MyMath/MyMath.cpp ****       } else if (x_ == 0) {
 273              		.loc 1 156 15 view .LVU67
 274 0194 DFED0B7A 		vldr.32	s15, .L60+12
 275              	.LVL25:
 276              	.L5:
 199:lib/MyMath/MyMath.cpp ****                   }
 200:lib/MyMath/MyMath.cpp ****             }
 201:lib/MyMath/MyMath.cpp ****       }
 202:lib/MyMath/MyMath.cpp ****       return a;
 277              		.loc 1 202 7 is_stmt 1 view .LVU68
 203:lib/MyMath/MyMath.cpp **** }
 278              		.loc 1 203 1 is_stmt 0 view .LVU69
 279 0198 FDEEE77A 		vcvt.s32.f32	s15, s15
 280              	.LVL26:
 281              		.loc 1 203 1 view .LVU70
 282 019c 17EE900A 		vmov	r0, s15	@ int
 283 01a0 BDEC048B 		vldm	sp!, {d8-d9}
 284              	.LCFI2:
 285              		.cfi_remember_state
 286              		.cfi_restore 82
 287              		.cfi_restore 83
 288              		.cfi_restore 80
 289              		.cfi_restore 81
 290              		.cfi_def_cfa_offset 8
 291              	.LVL27:
 292              		.loc 1 203 1 view .LVU71
ARM GAS  /var/folders/5c/srt4fy4j1pd641bjfx75k5000000gn/T//cc4ZdYbC.s 			page 10


 293 01a4 08BD     		pop	{r3, pc}
 294              	.LVL28:
 295              	.L51:
 296              	.LCFI3:
 297              		.cfi_restore_state
 161:lib/MyMath/MyMath.cpp ****             }
 298              		.loc 1 161 21 view .LVU72
 299 01a6 DFED0C7A 		vldr.32	s15, .L60+32
 300 01aa F5E7     		b	.L5
 301              	.L52:
 167:lib/MyMath/MyMath.cpp ****             }
 302              		.loc 1 167 21 view .LVU73
 303 01ac DFED097A 		vldr.32	s15, .L60+28
 304 01b0 F2E7     		b	.L5
 305              	.L61:
 306 01b2 00BFAFF3 		.align	3
 306      0080
 307              	.L60:
 308 01b8 7B14AE47 		.word	1202590843
 309 01bc E17A843F 		.word	1065646817
 310 01c0 0000B442 		.word	1119092736
 311 01c4 00000000 		.word	0
 312 01c8 0000E0C3 		.word	-1008730112
 313 01cc 00806E44 		.word	1148092416
 314 01d0 0030B845 		.word	1169698816
 315 01d4 00003443 		.word	1127481344
 316 01d8 0000B4C2 		.word	-1028390912
 317              		.cfi_endproc
 318              	.LFE9:
 319              		.cantunwind
 320              		.fnend
 322              		.section	.text.NormalizeDeg180,"ax",%progbits
 323              		.align	1
 324              		.global	NormalizeDeg180
 325              		.syntax unified
 326              		.thumb
 327              		.thumb_func
 329              	NormalizeDeg180:
 330              		.fnstart
 331              	.LVL29:
 332              	.LFB10:
 204:lib/MyMath/MyMath.cpp **** 
 205:lib/MyMath/MyMath.cpp **** int MyMath::NormalizeDeg180(int theta) {
 333              		.loc 1 205 40 is_stmt 1 view -0
 334              		.cfi_startproc
 335              		@ args = 0, pretend = 0, frame = 0
 336              		@ frame_needed = 0, uses_anonymous_args = 0
 337              		@ link register save eliminated.
 206:lib/MyMath/MyMath.cpp ****       while (theta < -180) theta += 360;
 338              		.loc 1 206 7 view .LVU75
 339 0000 01E0     		b	.L63
 340              	.L64:
 341              		.loc 1 206 28 discriminator 2 view .LVU76
 342              		.loc 1 206 34 is_stmt 0 discriminator 2 view .LVU77
 343 0002 00F5B470 		add	r0, r0, #360
 344              	.LVL30:
 345              	.L63:
ARM GAS  /var/folders/5c/srt4fy4j1pd641bjfx75k5000000gn/T//cc4ZdYbC.s 			page 11


 346              		.loc 1 206 20 is_stmt 1 discriminator 1 view .LVU78
 347 0006 10F1B40F 		cmn	r0, #180
 348 000a FADB     		blt	.L64
 349              		.loc 1 206 20 is_stmt 0 discriminator 1 view .LVU79
 350 000c 01E0     		b	.L65
 351              	.L66:
 207:lib/MyMath/MyMath.cpp ****       while (theta > 180) theta -= 360;
 352              		.loc 1 207 27 is_stmt 1 discriminator 2 view .LVU80
 353              		.loc 1 207 33 is_stmt 0 discriminator 2 view .LVU81
 354 000e A0F5B470 		sub	r0, r0, #360
 355              	.LVL31:
 356              	.L65:
 357              		.loc 1 207 20 is_stmt 1 discriminator 1 view .LVU82
 358 0012 B428     		cmp	r0, #180
 359 0014 FBDC     		bgt	.L66
 208:lib/MyMath/MyMath.cpp ****       return theta;
 360              		.loc 1 208 7 view .LVU83
 209:lib/MyMath/MyMath.cpp **** }
 361              		.loc 1 209 1 is_stmt 0 view .LVU84
 362 0016 7047     		bx	lr
 363              		.cfi_endproc
 364              	.LFE10:
 365              		.cantunwind
 366              		.fnend
 368              		.global	__aeabi_dadd
 369              		.global	__aeabi_dcmplt
 370              		.section	.text.NormalizeRad180,"ax",%progbits
 371              		.align	1
 372              		.global	NormalizeRad180
 373              		.syntax unified
 374              		.thumb
 375              		.thumb_func
 377              	NormalizeRad180:
 378              		.fnstart
 379              	.LVL32:
 380              	.LFB11:
 210:lib/MyMath/MyMath.cpp **** 
 211:lib/MyMath/MyMath.cpp **** float MyMath::NormalizeRad180(float theta) {
 381              		.loc 1 211 44 is_stmt 1 view -0
 382              		.cfi_startproc
 383              		@ Volatile: function does not return.
 384              		@ args = 0, pretend = 0, frame = 0
 385              		@ frame_needed = 0, uses_anonymous_args = 0
 386              		.loc 1 211 44 is_stmt 0 view .LVU86
 387 0000 08B5     		push	{r3, lr}
 388              	.LCFI4:
 389              		.cfi_def_cfa_offset 8
 390              		.cfi_offset 3, -8
 391              		.cfi_offset 14, -4
 392 0002 10EE100A 		vmov	r0, s0
 212:lib/MyMath/MyMath.cpp ****       while (theta < PI * -1) theta += TWO_PI;
 393              		.loc 1 212 7 is_stmt 1 view .LVU87
 394 0006 08E0     		b	.L68
 395              	.LVL33:
 396              	.L69:
 397              		.loc 1 212 31 discriminator 2 view .LVU88
 398              		.loc 1 212 37 is_stmt 0 discriminator 2 view .LVU89
ARM GAS  /var/folders/5c/srt4fy4j1pd641bjfx75k5000000gn/T//cc4ZdYbC.s 			page 12


 399 0008 0BA3     		adr	r3, .L72
 400 000a D3E90023 		ldrd	r2, [r3]
 401 000e 2046     		mov	r0, r4
 402 0010 2946     		mov	r1, r5
 403 0012 FFF7FEFF 		bl	__aeabi_dadd
 404              	.LVL34:
 405 0016 FFF7FEFF 		bl	__aeabi_d2f
 406              	.LVL35:
 407              	.L68:
 408              		.loc 1 212 20 is_stmt 1 discriminator 1 view .LVU90
 409              		.loc 1 212 14 is_stmt 0 discriminator 1 view .LVU91
 410 001a FFF7FEFF 		bl	__aeabi_f2d
 411              	.LVL36:
 412              		.loc 1 212 14 discriminator 1 view .LVU92
 413 001e 0446     		mov	r4, r0
 414 0020 0D46     		mov	r5, r1
 415              		.loc 1 212 20 discriminator 1 view .LVU93
 416 0022 07A3     		adr	r3, .L72+8
 417 0024 D3E90023 		ldrd	r2, [r3]
 418 0028 FFF7FEFF 		bl	__aeabi_dcmplt
 419              	.LVL37:
 420 002c 0028     		cmp	r0, #0
 421 002e EBD1     		bne	.L69
 422              	.LVL38:
 423              	.L70:
 213:lib/MyMath/MyMath.cpp ****       while (theta > PI) theta -= TWO_PI;
 424              		.loc 1 213 20 is_stmt 1 discriminator 1 view .LVU94
 425              		.loc 1 213 26 discriminator 1 view .LVU95
 426              		.loc 1 213 26 is_stmt 0 discriminator 1 view .LVU96
 427 0030 FEE7     		b	.L70
 428              	.L73:
 429 0032 00BFAFF3 		.align	3
 429      0080
 430              	.L72:
 431 0038 182D4454 		.word	1413754136
 432 003c FB211940 		.word	1075388923
 433 0040 182D4454 		.word	1413754136
 434 0044 FB2109C0 		.word	-1073143301
 435              		.cfi_endproc
 436              	.LFE11:
 437              		.cantunwind
 438              		.fnend
 440              		.section	.text.NormalizeDeg,"ax",%progbits
 441              		.align	1
 442              		.global	NormalizeDeg
 443              		.syntax unified
 444              		.thumb
 445              		.thumb_func
 447              	NormalizeDeg:
 448              		.fnstart
 449              	.LVL39:
 450              	.LFB12:
 214:lib/MyMath/MyMath.cpp **** }
 215:lib/MyMath/MyMath.cpp **** 
 216:lib/MyMath/MyMath.cpp **** int MyMath::NormalizeDeg(int theta) {
 451              		.loc 1 216 37 is_stmt 1 view -0
 452              		.cfi_startproc
ARM GAS  /var/folders/5c/srt4fy4j1pd641bjfx75k5000000gn/T//cc4ZdYbC.s 			page 13


 453              		@ args = 0, pretend = 0, frame = 0
 454              		@ frame_needed = 0, uses_anonymous_args = 0
 455              		@ link register save eliminated.
 217:lib/MyMath/MyMath.cpp ****       while (theta < 0) theta += 360;
 456              		.loc 1 217 7 view .LVU98
 457 0000 01E0     		b	.L75
 458              	.L76:
 459              		.loc 1 217 25 discriminator 2 view .LVU99
 460              		.loc 1 217 31 is_stmt 0 discriminator 2 view .LVU100
 461 0002 00F5B470 		add	r0, r0, #360
 462              	.LVL40:
 463              	.L75:
 464              		.loc 1 217 20 is_stmt 1 discriminator 1 view .LVU101
 465 0006 0028     		cmp	r0, #0
 466 0008 FBDB     		blt	.L76
 467              		.loc 1 217 20 is_stmt 0 discriminator 1 view .LVU102
 468 000a 01E0     		b	.L77
 469              	.L78:
 218:lib/MyMath/MyMath.cpp ****       while (theta > 360) theta -= 360;
 470              		.loc 1 218 27 is_stmt 1 discriminator 2 view .LVU103
 471              		.loc 1 218 33 is_stmt 0 discriminator 2 view .LVU104
 472 000c A0F5B470 		sub	r0, r0, #360
 473              	.LVL41:
 474              	.L77:
 475              		.loc 1 218 20 is_stmt 1 discriminator 1 view .LVU105
 476 0010 B0F5B47F 		cmp	r0, #360
 477 0014 FADC     		bgt	.L78
 219:lib/MyMath/MyMath.cpp ****       return theta;
 478              		.loc 1 219 7 view .LVU106
 220:lib/MyMath/MyMath.cpp **** }
 479              		.loc 1 220 1 is_stmt 0 view .LVU107
 480 0016 7047     		bx	lr
 481              		.cfi_endproc
 482              	.LFE12:
 483              		.cantunwind
 484              		.fnend
 486              		.section	.text.sinDeg,"ax",%progbits
 487              		.align	1
 488              		.global	sinDeg
 489              		.syntax unified
 490              		.thumb
 491              		.thumb_func
 493              	sinDeg:
 494              		.fnstart
 495              	.LVL42:
 496              	.LFB3:
  96:lib/MyMath/MyMath.cpp ****       // 0~360の値に変換
 497              		.loc 1 96 31 is_stmt 1 view -0
 498              		.cfi_startproc
 499              		@ args = 0, pretend = 0, frame = 0
 500              		@ frame_needed = 0, uses_anonymous_args = 0
  96:lib/MyMath/MyMath.cpp ****       // 0~360の値に変換
 501              		.loc 1 96 31 is_stmt 0 view .LVU109
 502 0000 08B5     		push	{r3, lr}
 503              	.LCFI5:
 504              		.cfi_def_cfa_offset 8
 505              		.cfi_offset 3, -8
ARM GAS  /var/folders/5c/srt4fy4j1pd641bjfx75k5000000gn/T//cc4ZdYbC.s 			page 14


 506              		.cfi_offset 14, -4
  98:lib/MyMath/MyMath.cpp ****       int theta_cal = deg % 90;
 507              		.loc 1 98 7 is_stmt 1 view .LVU110
  98:lib/MyMath/MyMath.cpp ****       int theta_cal = deg % 90;
 508              		.loc 1 98 25 is_stmt 0 view .LVU111
 509 0002 FFF7FEFF 		bl	NormalizeDeg
 510              	.LVL43:
  99:lib/MyMath/MyMath.cpp ****       if (deg >= 90 && deg < 180) {
 511              		.loc 1 99 7 is_stmt 1 view .LVU112
  99:lib/MyMath/MyMath.cpp ****       if (deg >= 90 && deg < 180) {
 512              		.loc 1 99 11 is_stmt 0 view .LVU113
 513 0006 214A     		ldr	r2, .L91
 514 0008 82FB0032 		smull	r3, r2, r2, r0
 515 000c 0244     		add	r2, r2, r0
 516 000e C317     		asrs	r3, r0, #31
 517 0010 C3EBA213 		rsb	r3, r3, r2, asr #6
 518 0014 5A22     		movs	r2, #90
 519 0016 02FB1303 		mls	r3, r2, r3, r0
 520              	.LVL44:
 100:lib/MyMath/MyMath.cpp ****             theta_cal = 90 - theta_cal;
 521              		.loc 1 100 7 is_stmt 1 view .LVU114
 100:lib/MyMath/MyMath.cpp ****             theta_cal = 90 - theta_cal;
 522              		.loc 1 100 21 is_stmt 0 view .LVU115
 523 001a A0F15A02 		sub	r2, r0, #90
 100:lib/MyMath/MyMath.cpp ****             theta_cal = 90 - theta_cal;
 524              		.loc 1 100 7 view .LVU116
 525 001e 592A     		cmp	r2, #89
 526 0020 01D8     		bhi	.L80
 101:lib/MyMath/MyMath.cpp ****       }
 527              		.loc 1 101 13 is_stmt 1 view .LVU117
 101:lib/MyMath/MyMath.cpp ****       }
 528              		.loc 1 101 23 is_stmt 0 view .LVU118
 529 0022 C3F15A03 		rsb	r3, r3, #90
 530              	.LVL45:
 531              	.L80:
 103:lib/MyMath/MyMath.cpp ****             theta_cal = 90 - theta_cal;
 532              		.loc 1 103 7 is_stmt 1 view .LVU119
 103:lib/MyMath/MyMath.cpp ****             theta_cal = 90 - theta_cal;
 533              		.loc 1 103 22 is_stmt 0 view .LVU120
 534 0026 A0F58772 		sub	r2, r0, #270
 103:lib/MyMath/MyMath.cpp ****             theta_cal = 90 - theta_cal;
 535              		.loc 1 103 7 view .LVU121
 536 002a 592A     		cmp	r2, #89
 537 002c 01D8     		bhi	.L81
 104:lib/MyMath/MyMath.cpp ****       }
 538              		.loc 1 104 13 is_stmt 1 view .LVU122
 104:lib/MyMath/MyMath.cpp ****       }
 539              		.loc 1 104 23 is_stmt 0 view .LVU123
 540 002e C3F15A03 		rsb	r3, r3, #90
 541              	.LVL46:
 542              	.L81:
 107:lib/MyMath/MyMath.cpp ****             // 0~90 第一象限
 543              		.loc 1 107 7 is_stmt 1 view .LVU124
 544 0032 5A28     		cmp	r0, #90
 545 0034 13D9     		bls	.L88
 110:lib/MyMath/MyMath.cpp ****             // 91~180 第二象限
 546              		.loc 1 110 14 view .LVU125
ARM GAS  /var/folders/5c/srt4fy4j1pd641bjfx75k5000000gn/T//cc4ZdYbC.s 			page 15


 110:lib/MyMath/MyMath.cpp ****             // 91~180 第二象限
 547              		.loc 1 110 27 is_stmt 0 view .LVU126
 548 0036 A0F15B02 		sub	r2, r0, #91
 110:lib/MyMath/MyMath.cpp ****             // 91~180 第二象限
 549              		.loc 1 110 14 view .LVU127
 550 003a 592A     		cmp	r2, #89
 551 003c 15D9     		bls	.L89
 113:lib/MyMath/MyMath.cpp ****             // 181~270 第三象限
 552              		.loc 1 113 14 is_stmt 1 view .LVU128
 113:lib/MyMath/MyMath.cpp ****             // 181~270 第三象限
 553              		.loc 1 113 28 is_stmt 0 view .LVU129
 554 003e A0F1B502 		sub	r2, r0, #181
 113:lib/MyMath/MyMath.cpp ****             // 181~270 第三象限
 555              		.loc 1 113 14 view .LVU130
 556 0042 592A     		cmp	r2, #89
 557 0044 17D9     		bls	.L90
 116:lib/MyMath/MyMath.cpp ****             // 271~360 第四象限
 558              		.loc 1 116 14 is_stmt 1 view .LVU131
 116:lib/MyMath/MyMath.cpp ****             // 271~360 第四象限
 559              		.loc 1 116 28 is_stmt 0 view .LVU132
 560 0046 A0F20F10 		subw	r0, r0, #271
 561              	.LVL47:
 116:lib/MyMath/MyMath.cpp ****             // 271~360 第四象限
 562              		.loc 1 116 14 view .LVU133
 563 004a 5828     		cmp	r0, #88
 564 004c 1BD8     		bhi	.L86
 118:lib/MyMath/MyMath.cpp ****       } else {
 565              		.loc 1 118 13 is_stmt 1 view .LVU134
 118:lib/MyMath/MyMath.cpp ****       } else {
 566              		.loc 1 118 35 is_stmt 0 view .LVU135
 567 004e 104A     		ldr	r2, .L91+4
 568 0050 02EB8303 		add	r3, r2, r3, lsl #2
 569              	.LVL48:
 118:lib/MyMath/MyMath.cpp ****       } else {
 570              		.loc 1 118 35 view .LVU136
 571 0054 93ED000A 		vldr.32	s0, [r3]
 572 0058 B1EE400A 		vneg.f32	s0, s0
 573 005c 04E0     		b	.L79
 574              	.LVL49:
 575              	.L88:
 109:lib/MyMath/MyMath.cpp ****       } else if (deg > 90 && deg <= 180) {
 576              		.loc 1 109 13 is_stmt 1 view .LVU137
 109:lib/MyMath/MyMath.cpp ****       } else if (deg > 90 && deg <= 180) {
 577              		.loc 1 109 34 is_stmt 0 view .LVU138
 578 005e 0C4A     		ldr	r2, .L91+4
 579 0060 02EB8303 		add	r3, r2, r3, lsl #2
 580              	.LVL50:
 109:lib/MyMath/MyMath.cpp ****       } else if (deg > 90 && deg <= 180) {
 581              		.loc 1 109 34 view .LVU139
 582 0064 93ED000A 		vldr.32	s0, [r3]
 583              	.LVL51:
 584              	.L79:
 122:lib/MyMath/MyMath.cpp **** 
 585              		.loc 1 122 1 view .LVU140
 586 0068 08BD     		pop	{r3, pc}
 587              	.LVL52:
 588              	.L89:
ARM GAS  /var/folders/5c/srt4fy4j1pd641bjfx75k5000000gn/T//cc4ZdYbC.s 			page 16


 112:lib/MyMath/MyMath.cpp ****       } else if (deg > 180 && deg <= 270) {
 589              		.loc 1 112 13 is_stmt 1 view .LVU141
 112:lib/MyMath/MyMath.cpp ****       } else if (deg > 180 && deg <= 270) {
 590              		.loc 1 112 34 is_stmt 0 view .LVU142
 591 006a 094A     		ldr	r2, .L91+4
 592 006c 02EB8303 		add	r3, r2, r3, lsl #2
 593              	.LVL53:
 112:lib/MyMath/MyMath.cpp ****       } else if (deg > 180 && deg <= 270) {
 594              		.loc 1 112 34 view .LVU143
 595 0070 93ED000A 		vldr.32	s0, [r3]
 596 0074 F8E7     		b	.L79
 597              	.LVL54:
 598              	.L90:
 115:lib/MyMath/MyMath.cpp ****       } else if (deg > 270 && deg < 360) {
 599              		.loc 1 115 13 is_stmt 1 view .LVU144
 115:lib/MyMath/MyMath.cpp ****       } else if (deg > 270 && deg < 360) {
 600              		.loc 1 115 35 is_stmt 0 view .LVU145
 601 0076 064A     		ldr	r2, .L91+4
 602 0078 02EB8303 		add	r3, r2, r3, lsl #2
 603              	.LVL55:
 115:lib/MyMath/MyMath.cpp ****       } else if (deg > 270 && deg < 360) {
 604              		.loc 1 115 35 view .LVU146
 605 007c 93ED000A 		vldr.32	s0, [r3]
 606 0080 B1EE400A 		vneg.f32	s0, s0
 607 0084 F0E7     		b	.L79
 608              	.LVL56:
 609              	.L86:
 120:lib/MyMath/MyMath.cpp ****       }
 610              		.loc 1 120 20 view .LVU147
 611 0086 9FED030A 		vldr.32	s0, .L91+8
 612 008a EDE7     		b	.L79
 613              	.L92:
 614              		.align	2
 615              	.L91:
 616 008c B7600BB6 		.word	-1240768329
 617 0090 00000000 		.word	_ZL4_sin
 618 0094 00000000 		.word	0
 619              		.cfi_endproc
 620              	.LFE3:
 621              		.cantunwind
 622              		.fnend
 624              		.section	.text.cosDeg,"ax",%progbits
 625              		.align	1
 626              		.global	cosDeg
 627              		.syntax unified
 628              		.thumb
 629              		.thumb_func
 631              	cosDeg:
 632              		.fnstart
 633              	.LVL57:
 634              	.LFB4:
 124:lib/MyMath/MyMath.cpp ****       return sinDeg(deg + 90);
 635              		.loc 1 124 31 is_stmt 1 view -0
 636              		.cfi_startproc
 637              		@ args = 0, pretend = 0, frame = 0
 638              		@ frame_needed = 0, uses_anonymous_args = 0
 124:lib/MyMath/MyMath.cpp ****       return sinDeg(deg + 90);
ARM GAS  /var/folders/5c/srt4fy4j1pd641bjfx75k5000000gn/T//cc4ZdYbC.s 			page 17


 639              		.loc 1 124 31 is_stmt 0 view .LVU149
 640 0000 08B5     		push	{r3, lr}
 641              	.LCFI6:
 642              		.cfi_def_cfa_offset 8
 643              		.cfi_offset 3, -8
 644              		.cfi_offset 14, -4
 125:lib/MyMath/MyMath.cpp **** }
 645              		.loc 1 125 7 is_stmt 1 view .LVU150
 125:lib/MyMath/MyMath.cpp **** }
 646              		.loc 1 125 20 is_stmt 0 view .LVU151
 647 0002 5A30     		adds	r0, r0, #90
 648              	.LVL58:
 125:lib/MyMath/MyMath.cpp **** }
 649              		.loc 1 125 20 view .LVU152
 650 0004 FFF7FEFF 		bl	sinDeg
 651              	.LVL59:
 126:lib/MyMath/MyMath.cpp **** 
 652              		.loc 1 126 1 view .LVU153
 653 0008 08BD     		pop	{r3, pc}
 654              		.cfi_endproc
 655              	.LFE4:
 656              		.cantunwind
 657              		.fnend
 659              		.global	__aeabi_d2iz
 660              		.section	.text.cos,"ax",%progbits
 661              		.align	1
 662              		.global	cos
 663              		.syntax unified
 664              		.thumb
 665              		.thumb_func
 667              	cos:
 668              		.fnstart
 669              	.LVL60:
 670              	.LFB7:
 140:lib/MyMath/MyMath.cpp ****       return cosDeg(Degrees(rad));
 671              		.loc 1 140 30 is_stmt 1 view -0
 672              		.cfi_startproc
 673              		@ args = 0, pretend = 0, frame = 0
 674              		@ frame_needed = 0, uses_anonymous_args = 0
 140:lib/MyMath/MyMath.cpp ****       return cosDeg(Degrees(rad));
 675              		.loc 1 140 30 is_stmt 0 view .LVU155
 676 0000 08B5     		push	{r3, lr}
 677              	.LCFI7:
 678              		.cfi_def_cfa_offset 8
 679              		.cfi_offset 3, -8
 680              		.cfi_offset 14, -4
 681 0002 10EE100A 		vmov	r0, s0
 141:lib/MyMath/MyMath.cpp **** }
 682              		.loc 1 141 7 is_stmt 1 view .LVU156
 141:lib/MyMath/MyMath.cpp **** }
 683              		.loc 1 141 21 is_stmt 0 view .LVU157
 684 0006 FFF7FEFF 		bl	__aeabi_f2d
 685              	.LVL61:
 141:lib/MyMath/MyMath.cpp **** }
 686              		.loc 1 141 21 view .LVU158
 687 000a 05A3     		adr	r3, .L97
 688 000c D3E90023 		ldrd	r2, [r3]
ARM GAS  /var/folders/5c/srt4fy4j1pd641bjfx75k5000000gn/T//cc4ZdYbC.s 			page 18


 689 0010 FFF7FEFF 		bl	__aeabi_dmul
 690              	.LVL62:
 141:lib/MyMath/MyMath.cpp **** }
 691              		.loc 1 141 20 view .LVU159
 692 0014 FFF7FEFF 		bl	__aeabi_d2iz
 693              	.LVL63:
 694 0018 FFF7FEFF 		bl	cosDeg
 695              	.LVL64:
 142:lib/MyMath/MyMath.cpp **** 
 696              		.loc 1 142 1 view .LVU160
 697 001c 08BD     		pop	{r3, pc}
 698              	.L98:
 699 001e 00BF     		.align	3
 700              	.L97:
 701 0020 F8C1631A 		.word	442745336
 702 0024 DCA54C40 		.word	1078765020
 703              		.cfi_endproc
 704              	.LFE7:
 705              		.cantunwind
 706              		.fnend
 708              		.global	__aeabi_i2d
 709              		.section	.text.tanDeg,"ax",%progbits
 710              		.align	1
 711              		.global	tanDeg
 712              		.syntax unified
 713              		.thumb
 714              		.thumb_func
 716              	tanDeg:
 717              		.fnstart
 718              	.LVL65:
 719              	.LFB5:
 128:lib/MyMath/MyMath.cpp ****       float rad = Radians(deg);
 720              		.loc 1 128 31 is_stmt 1 view -0
 721              		.cfi_startproc
 722              		@ args = 0, pretend = 0, frame = 0
 723              		@ frame_needed = 0, uses_anonymous_args = 0
 128:lib/MyMath/MyMath.cpp ****       float rad = Radians(deg);
 724              		.loc 1 128 31 is_stmt 0 view .LVU162
 725 0000 10B5     		push	{r4, lr}
 726              	.LCFI8:
 727              		.cfi_def_cfa_offset 8
 728              		.cfi_offset 4, -8
 729              		.cfi_offset 14, -4
 730 0002 2DED028B 		vpush.64	{d8}
 731              	.LCFI9:
 732              		.cfi_def_cfa_offset 16
 733              		.cfi_offset 80, -16
 734              		.cfi_offset 81, -12
 129:lib/MyMath/MyMath.cpp ****       if (cosDeg(rad) == 0)
 735              		.loc 1 129 7 is_stmt 1 view .LVU163
 129:lib/MyMath/MyMath.cpp ****       if (cosDeg(rad) == 0)
 736              		.loc 1 129 19 is_stmt 0 view .LVU164
 737 0006 FFF7FEFF 		bl	__aeabi_i2d
 738              	.LVL66:
 129:lib/MyMath/MyMath.cpp ****       if (cosDeg(rad) == 0)
 739              		.loc 1 129 19 view .LVU165
 740 000a 14A3     		adr	r3, .L103+4
ARM GAS  /var/folders/5c/srt4fy4j1pd641bjfx75k5000000gn/T//cc4ZdYbC.s 			page 19


 741 000c D3E90023 		ldrd	r2, [r3]
 742 0010 FFF7FEFF 		bl	__aeabi_dmul
 743              	.LVL67:
 129:lib/MyMath/MyMath.cpp ****       if (cosDeg(rad) == 0)
 744              		.loc 1 129 13 view .LVU166
 745 0014 FFF7FEFF 		bl	__aeabi_d2f
 746              	.LVL68:
 747 0018 07EE900A 		vmov	s15, r0
 748              	.LVL69:
 130:lib/MyMath/MyMath.cpp ****             return 0;
 749              		.loc 1 130 7 is_stmt 1 view .LVU167
 130:lib/MyMath/MyMath.cpp ****             return 0;
 750              		.loc 1 130 17 is_stmt 0 view .LVU168
 751 001c FDEEE77A 		vcvt.s32.f32	s15, s15
 752 0020 17EE904A 		vmov	r4, s15	@ int
 753 0024 2046     		mov	r0, r4
 754              	.LVL70:
 130:lib/MyMath/MyMath.cpp ****             return 0;
 755              		.loc 1 130 17 view .LVU169
 756 0026 FFF7FEFF 		bl	cosDeg
 757              	.LVL71:
 130:lib/MyMath/MyMath.cpp ****             return 0;
 758              		.loc 1 130 7 view .LVU170
 759 002a B5EE400A 		vcmp.f32	s0, #0
 760 002e F1EE10FA 		vmrs	APSR_nzcv, FPSCR
 761 0032 0BD0     		beq	.L101
 762 0034 B0EE408A 		vmov.f32	s16, s0
 133:lib/MyMath/MyMath.cpp **** }
 763              		.loc 1 133 13 is_stmt 1 view .LVU171
 133:lib/MyMath/MyMath.cpp **** }
 764              		.loc 1 133 26 is_stmt 0 view .LVU172
 765 0038 2046     		mov	r0, r4
 766 003a FFF7FEFF 		bl	sinDeg
 767              	.LVL72:
 768 003e F0EE407A 		vmov.f32	s15, s0
 133:lib/MyMath/MyMath.cpp **** }
 769              		.loc 1 133 44 view .LVU173
 770 0042 87EE880A 		vdiv.f32	s0, s15, s16
 771              	.L99:
 134:lib/MyMath/MyMath.cpp **** 
 772              		.loc 1 134 1 view .LVU174
 773 0046 BDEC028B 		vldm	sp!, {d8}
 774              	.LCFI10:
 775              		.cfi_remember_state
 776              		.cfi_restore 80
 777              		.cfi_restore 81
 778              		.cfi_def_cfa_offset 8
 779 004a 10BD     		pop	{r4, pc}
 780              	.L101:
 781              	.LCFI11:
 782              		.cfi_restore_state
 131:lib/MyMath/MyMath.cpp ****       else
 783              		.loc 1 131 20 view .LVU175
 784 004c 9FED020A 		vldr.32	s0, .L103
 785 0050 F9E7     		b	.L99
 786              	.L104:
 787 0052 00BFAFF3 		.align	3
ARM GAS  /var/folders/5c/srt4fy4j1pd641bjfx75k5000000gn/T//cc4ZdYbC.s 			page 20


 787      0080
 788              	.L103:
 789 0058 00000000 		.word	0
 790 005c 399D52A2 		.word	-1571644103
 791 0060 46DF913F 		.word	1066524486
 792              		.cfi_endproc
 793              	.LFE5:
 794              		.cantunwind
 795              		.fnend
 797              		.section	.text.tan,"ax",%progbits
 798              		.align	1
 799              		.global	tan
 800              		.syntax unified
 801              		.thumb
 802              		.thumb_func
 804              	tan:
 805              		.fnstart
 806              	.LVL73:
 807              	.LFB8:
 144:lib/MyMath/MyMath.cpp ****       return tanDeg(Degrees(rad));
 808              		.loc 1 144 30 is_stmt 1 view -0
 809              		.cfi_startproc
 810              		@ args = 0, pretend = 0, frame = 0
 811              		@ frame_needed = 0, uses_anonymous_args = 0
 144:lib/MyMath/MyMath.cpp ****       return tanDeg(Degrees(rad));
 812              		.loc 1 144 30 is_stmt 0 view .LVU177
 813 0000 08B5     		push	{r3, lr}
 814              	.LCFI12:
 815              		.cfi_def_cfa_offset 8
 816              		.cfi_offset 3, -8
 817              		.cfi_offset 14, -4
 818 0002 10EE100A 		vmov	r0, s0
 145:lib/MyMath/MyMath.cpp **** }
 819              		.loc 1 145 7 is_stmt 1 view .LVU178
 145:lib/MyMath/MyMath.cpp **** }
 820              		.loc 1 145 21 is_stmt 0 view .LVU179
 821 0006 FFF7FEFF 		bl	__aeabi_f2d
 822              	.LVL74:
 145:lib/MyMath/MyMath.cpp **** }
 823              		.loc 1 145 21 view .LVU180
 824 000a 05A3     		adr	r3, .L107
 825 000c D3E90023 		ldrd	r2, [r3]
 826 0010 FFF7FEFF 		bl	__aeabi_dmul
 827              	.LVL75:
 145:lib/MyMath/MyMath.cpp **** }
 828              		.loc 1 145 20 view .LVU181
 829 0014 FFF7FEFF 		bl	__aeabi_d2iz
 830              	.LVL76:
 831 0018 FFF7FEFF 		bl	tanDeg
 832              	.LVL77:
 146:lib/MyMath/MyMath.cpp **** 
 833              		.loc 1 146 1 view .LVU182
 834 001c 08BD     		pop	{r3, pc}
 835              	.L108:
 836 001e 00BF     		.align	3
 837              	.L107:
 838 0020 F8C1631A 		.word	442745336
ARM GAS  /var/folders/5c/srt4fy4j1pd641bjfx75k5000000gn/T//cc4ZdYbC.s 			page 21


 839 0024 DCA54C40 		.word	1078765020
 840              		.cfi_endproc
 841              	.LFE8:
 842              		.cantunwind
 843              		.fnend
 845              		.section	.text.sin,"ax",%progbits
 846              		.align	1
 847              		.global	sin
 848              		.syntax unified
 849              		.thumb
 850              		.thumb_func
 852              	sin:
 853              		.fnstart
 854              	.LVL78:
 855              	.LFB6:
 136:lib/MyMath/MyMath.cpp ****       return sinDeg(Degrees(rad));
 856              		.loc 1 136 30 is_stmt 1 view -0
 857              		.cfi_startproc
 858              		@ args = 0, pretend = 0, frame = 0
 859              		@ frame_needed = 0, uses_anonymous_args = 0
 136:lib/MyMath/MyMath.cpp ****       return sinDeg(Degrees(rad));
 860              		.loc 1 136 30 is_stmt 0 view .LVU184
 861 0000 08B5     		push	{r3, lr}
 862              	.LCFI13:
 863              		.cfi_def_cfa_offset 8
 864              		.cfi_offset 3, -8
 865              		.cfi_offset 14, -4
 866 0002 10EE100A 		vmov	r0, s0
 137:lib/MyMath/MyMath.cpp **** }
 867              		.loc 1 137 7 is_stmt 1 view .LVU185
 137:lib/MyMath/MyMath.cpp **** }
 868              		.loc 1 137 21 is_stmt 0 view .LVU186
 869 0006 FFF7FEFF 		bl	__aeabi_f2d
 870              	.LVL79:
 137:lib/MyMath/MyMath.cpp **** }
 871              		.loc 1 137 21 view .LVU187
 872 000a 05A3     		adr	r3, .L111
 873 000c D3E90023 		ldrd	r2, [r3]
 874 0010 FFF7FEFF 		bl	__aeabi_dmul
 875              	.LVL80:
 137:lib/MyMath/MyMath.cpp **** }
 876              		.loc 1 137 20 view .LVU188
 877 0014 FFF7FEFF 		bl	__aeabi_d2iz
 878              	.LVL81:
 879 0018 FFF7FEFF 		bl	sinDeg
 880              	.LVL82:
 138:lib/MyMath/MyMath.cpp **** 
 881              		.loc 1 138 1 view .LVU189
 882 001c 08BD     		pop	{r3, pc}
 883              	.L112:
 884 001e 00BF     		.align	3
 885              	.L111:
 886 0020 F8C1631A 		.word	442745336
 887 0024 DCA54C40 		.word	1078765020
 888              		.cfi_endproc
 889              	.LFE6:
 890              		.cantunwind
ARM GAS  /var/folders/5c/srt4fy4j1pd641bjfx75k5000000gn/T//cc4ZdYbC.s 			page 22


 891              		.fnend
 893              		.global	__aeabi_dsub
 894              		.global	__aeabi_dcmpge
 895              		.section	.text.NormalizeRad,"ax",%progbits
 896              		.align	1
 897              		.global	NormalizeRad
 898              		.syntax unified
 899              		.thumb
 900              		.thumb_func
 902              	NormalizeRad:
 903              		.fnstart
 904              	.LVL83:
 905              	.LFB13:
 221:lib/MyMath/MyMath.cpp **** 
 222:lib/MyMath/MyMath.cpp **** float MyMath::NormalizeRad(float theta) {
 906              		.loc 1 222 41 is_stmt 1 view -0
 907              		.cfi_startproc
 908              		@ args = 0, pretend = 0, frame = 0
 909              		@ frame_needed = 0, uses_anonymous_args = 0
 910              		.loc 1 222 41 is_stmt 0 view .LVU191
 911 0000 D0B5     		push	{r4, r6, r7, lr}
 912              	.LCFI14:
 913              		.cfi_def_cfa_offset 16
 914              		.cfi_offset 4, -16
 915              		.cfi_offset 6, -12
 916              		.cfi_offset 7, -8
 917              		.cfi_offset 14, -4
 918 0002 10EE104A 		vmov	r4, s0
 223:lib/MyMath/MyMath.cpp ****       while (theta < 0) theta += TWO_PI;
 919              		.loc 1 223 7 is_stmt 1 view .LVU192
 920 0006 0AE0     		b	.L114
 921              	.LVL84:
 922              	.L115:
 923              		.loc 1 223 25 discriminator 2 view .LVU193
 924              		.loc 1 223 31 is_stmt 0 discriminator 2 view .LVU194
 925 0008 2046     		mov	r0, r4	@ float
 926 000a FFF7FEFF 		bl	__aeabi_f2d
 927              	.LVL85:
 928 000e 14A3     		adr	r3, .L119
 929 0010 D3E90023 		ldrd	r2, [r3]
 930 0014 FFF7FEFF 		bl	__aeabi_dadd
 931              	.LVL86:
 932 0018 FFF7FEFF 		bl	__aeabi_d2f
 933              	.LVL87:
 934 001c 0446     		mov	r4, r0	@ float
 935              	.LVL88:
 936              	.L114:
 937              		.loc 1 223 20 is_stmt 1 discriminator 1 view .LVU195
 938 001e 07EE904A 		vmov	s15, r4
 939 0022 F5EEC07A 		vcmpe.f32	s15, #0
 940 0026 F1EE10FA 		vmrs	APSR_nzcv, FPSCR
 941 002a EDD4     		bmi	.L115
 942              		.loc 1 223 20 is_stmt 0 discriminator 1 view .LVU196
 943 002c 09E0     		b	.L116
 944              	.L117:
 224:lib/MyMath/MyMath.cpp ****       while (theta >= TWO_PI) theta -= TWO_PI;
 945              		.loc 1 224 31 is_stmt 1 discriminator 2 view .LVU197
ARM GAS  /var/folders/5c/srt4fy4j1pd641bjfx75k5000000gn/T//cc4ZdYbC.s 			page 23


 946              		.loc 1 224 37 is_stmt 0 discriminator 2 view .LVU198
 947 002e 0CA3     		adr	r3, .L119
 948 0030 D3E90023 		ldrd	r2, [r3]
 949 0034 3046     		mov	r0, r6
 950 0036 3946     		mov	r1, r7
 951 0038 FFF7FEFF 		bl	__aeabi_dsub
 952              	.LVL89:
 953 003c FFF7FEFF 		bl	__aeabi_d2f
 954              	.LVL90:
 955 0040 0446     		mov	r4, r0	@ float
 956              	.LVL91:
 957              	.L116:
 958              		.loc 1 224 20 is_stmt 1 discriminator 1 view .LVU199
 959              		.loc 1 224 14 is_stmt 0 discriminator 1 view .LVU200
 960 0042 2046     		mov	r0, r4	@ float
 961 0044 FFF7FEFF 		bl	__aeabi_f2d
 962              	.LVL92:
 963 0048 0646     		mov	r6, r0
 964 004a 0F46     		mov	r7, r1
 965              		.loc 1 224 20 discriminator 1 view .LVU201
 966 004c 04A3     		adr	r3, .L119
 967 004e D3E90023 		ldrd	r2, [r3]
 968 0052 FFF7FEFF 		bl	__aeabi_dcmpge
 969              	.LVL93:
 970 0056 0028     		cmp	r0, #0
 971 0058 E9D1     		bne	.L117
 225:lib/MyMath/MyMath.cpp ****       return theta;
 972              		.loc 1 225 7 is_stmt 1 view .LVU202
 226:lib/MyMath/MyMath.cpp **** }
 973              		.loc 1 226 1 is_stmt 0 view .LVU203
 974 005a 00EE104A 		vmov	s0, r4
 975 005e D0BD     		pop	{r4, r6, r7, pc}
 976              	.LVL94:
 977              	.L120:
 978              		.loc 1 226 1 view .LVU204
 979              		.align	3
 980              	.L119:
 981 0060 182D4454 		.word	1413754136
 982 0064 FB211940 		.word	1075388923
 983              		.cfi_endproc
 984              	.LFE13:
 985              		.cantunwind
 986              		.fnend
 988              		.section	.text.GapDeg,"ax",%progbits
 989              		.align	1
 990              		.global	GapDeg
 991              		.syntax unified
 992              		.thumb
 993              		.thumb_func
 995              	GapDeg:
 996              		.fnstart
 997              	.LVL95:
 998              	.LFB14:
 227:lib/MyMath/MyMath.cpp **** 
 228:lib/MyMath/MyMath.cpp **** int MyMath::GapDeg(int deg1, int deg2) {
 999              		.loc 1 228 40 is_stmt 1 view -0
 1000              		.cfi_startproc
ARM GAS  /var/folders/5c/srt4fy4j1pd641bjfx75k5000000gn/T//cc4ZdYbC.s 			page 24


 1001              		@ args = 0, pretend = 0, frame = 0
 1002              		@ frame_needed = 0, uses_anonymous_args = 0
 1003              		@ link register save eliminated.
 229:lib/MyMath/MyMath.cpp ****       int diff = abs(deg1 - deg2) % 360;
 1004              		.loc 1 229 7 view .LVU206
 1005              		.loc 1 229 18 is_stmt 0 view .LVU207
 1006 0000 401A     		subs	r0, r0, r1
 1007              	.LVL96:
 1008              		.loc 1 229 18 view .LVU208
 1009 0002 80EAE073 		eor	r3, r0, r0, asr #31
 1010 0006 A3EBE073 		sub	r3, r3, r0, asr #31
 1011              		.loc 1 229 11 view .LVU209
 1012 000a 074A     		ldr	r2, .L123
 1013 000c 82FB0312 		smull	r1, r2, r2, r3
 1014              	.LVL97:
 1015              		.loc 1 229 11 view .LVU210
 1016 0010 1A44     		add	r2, r2, r3
 1017 0012 D817     		asrs	r0, r3, #31
 1018 0014 C0EB2220 		rsb	r0, r0, r2, asr #8
 1019 0018 4FF4B472 		mov	r2, #360
 1020 001c 02FB1030 		mls	r0, r2, r0, r3
 1021              	.LVL98:
 230:lib/MyMath/MyMath.cpp ****       if (diff > 180) {
 1022              		.loc 1 230 7 is_stmt 1 view .LVU211
 1023 0020 B428     		cmp	r0, #180
 1024 0022 00DD     		ble	.L121
 231:lib/MyMath/MyMath.cpp ****             diff = 360 - diff;
 1025              		.loc 1 231 13 view .LVU212
 1026              		.loc 1 231 18 is_stmt 0 view .LVU213
 1027 0024 101A     		subs	r0, r2, r0
 1028              	.LVL99:
 232:lib/MyMath/MyMath.cpp ****       }
 233:lib/MyMath/MyMath.cpp ****       return diff;
 1029              		.loc 1 233 7 is_stmt 1 view .LVU214
 1030              	.L121:
 234:lib/MyMath/MyMath.cpp **** }
 1031              		.loc 1 234 1 is_stmt 0 view .LVU215
 1032 0026 7047     		bx	lr
 1033              	.L124:
 1034              		.align	2
 1035              	.L123:
 1036 0028 B7600BB6 		.word	-1240768329
 1037              		.cfi_endproc
 1038              	.LFE14:
 1039              		.cantunwind
 1040              		.fnend
 1042              		.section	.text.sqrt,"ax",%progbits
 1043              		.align	1
 1044              		.global	sqrt
 1045              		.syntax unified
 1046              		.thumb
 1047              		.thumb_func
 1049              	sqrt:
 1050              		.fnstart
 1051              	.LVL100:
 1052              	.LFB15:
 235:lib/MyMath/MyMath.cpp **** 
ARM GAS  /var/folders/5c/srt4fy4j1pd641bjfx75k5000000gn/T//cc4ZdYbC.s 			page 25


 236:lib/MyMath/MyMath.cpp **** float MyMath::sqrt(float x) {
 1053              		.loc 1 236 29 is_stmt 1 view -0
 1054              		.cfi_startproc
 1055              		@ args = 0, pretend = 0, frame = 0
 1056              		@ frame_needed = 0, uses_anonymous_args = 0
 1057              		@ link register save eliminated.
 1058              		.loc 1 236 29 is_stmt 0 view .LVU217
 1059 0000 F0EE406A 		vmov.f32	s13, s0
 237:lib/MyMath/MyMath.cpp ****       float s, last;
 1060              		.loc 1 237 7 is_stmt 1 view .LVU218
 238:lib/MyMath/MyMath.cpp **** 
 239:lib/MyMath/MyMath.cpp ****       if (x < 0.0) return 0;
 1061              		.loc 1 239 7 view .LVU219
 1062 0004 B5EEC00A 		vcmpe.f32	s0, #0
 1063 0008 F1EE10FA 		vmrs	APSR_nzcv, FPSCR
 1064 000c 1BD4     		bmi	.L130
 240:lib/MyMath/MyMath.cpp **** 
 241:lib/MyMath/MyMath.cpp ****       if (x > 1.0) {
 1065              		.loc 1 241 7 view .LVU220
 1066 000e F7EE007A 		vmov.f32	s15, #1.0e+0
 1067 0012 B4EEE70A 		vcmpe.f32	s0, s15
 1068 0016 F1EE10FA 		vmrs	APSR_nzcv, FPSCR
 1069 001a 11DD     		ble	.L133
 242:lib/MyMath/MyMath.cpp ****             s = x;
 1070              		.loc 1 242 15 is_stmt 0 view .LVU221
 1071 001c F0EE407A 		vmov.f32	s15, s0
 1072              	.LVL101:
 1073              	.L129:
 243:lib/MyMath/MyMath.cpp ****       } else {
 244:lib/MyMath/MyMath.cpp ****             s = 1.0;
 245:lib/MyMath/MyMath.cpp ****       }
 246:lib/MyMath/MyMath.cpp **** 
 247:lib/MyMath/MyMath.cpp ****       do {
 1074              		.loc 1 247 7 is_stmt 1 discriminator 1 view .LVU222
 248:lib/MyMath/MyMath.cpp ****             last = s;
 1075              		.loc 1 248 13 discriminator 1 view .LVU223
 249:lib/MyMath/MyMath.cpp ****             s = (x / s + s) / 2.0;
 1076              		.loc 1 249 13 discriminator 1 view .LVU224
 1077              		.loc 1 249 20 is_stmt 0 discriminator 1 view .LVU225
 1078 0020 86EEA77A 		vdiv.f32	s14, s13, s15
 1079              		.loc 1 249 24 discriminator 1 view .LVU226
 1080 0024 37EE277A 		vadd.f32	s14, s14, s15
 1081 0028 B0EE670A 		vmov.f32	s0, s15
 1082              		.loc 1 249 15 discriminator 1 view .LVU227
 1083 002c F6EE007A 		vmov.f32	s15, #5.0e-1
 1084              	.LVL102:
 1085              		.loc 1 249 15 discriminator 1 view .LVU228
 1086 0030 67EE277A 		vmul.f32	s15, s14, s15
 1087              	.LVL103:
 250:lib/MyMath/MyMath.cpp ****       } while (s < last);
 1088              		.loc 1 250 18 is_stmt 1 discriminator 1 view .LVU229
 1089 0034 B4EEE70A 		vcmpe.f32	s0, s15
 1090 0038 F1EE10FA 		vmrs	APSR_nzcv, FPSCR
 1091 003c F0DC     		bgt	.L129
 1092 003e 7047     		bx	lr
 1093              	.LVL104:
 1094              	.L133:
ARM GAS  /var/folders/5c/srt4fy4j1pd641bjfx75k5000000gn/T//cc4ZdYbC.s 			page 26


 244:lib/MyMath/MyMath.cpp ****       }
 1095              		.loc 1 244 15 is_stmt 0 view .LVU230
 1096 0040 F7EE007A 		vmov.f32	s15, #1.0e+0
 1097 0044 ECE7     		b	.L129
 1098              	.L130:
 239:lib/MyMath/MyMath.cpp **** 
 1099              		.loc 1 239 27 view .LVU231
 1100 0046 9FED010A 		vldr.32	s0, .L134
 1101              	.LVL105:
 251:lib/MyMath/MyMath.cpp **** 
 252:lib/MyMath/MyMath.cpp ****       return last;
 253:lib/MyMath/MyMath.cpp **** }...
 1102              		.loc 1 253 1 view .LVU232
 1103 004a 7047     		bx	lr
 1104              	.L135:
 1105              		.align	2
 1106              	.L134:
 1107 004c 00000000 		.word	0
 1108              		.cfi_endproc
 1109              	.LFE15:
 1110              		.cantunwind
 1111              		.fnend
 1113              		.section	.rodata._ZL4_sin,"a"
 1114              		.align	2
 1117              	_ZL4_sin:
 1118 0000 00000000 		.word	0
 1119 0004 59F88E3C 		.word	1016002649
 1120 0008 C6F20E3D 		.word	1024389830
 1121 000c 3A5E563D 		.word	1029070394
 1122 0010 7BDC8E3D 		.word	1032772731
 1123 0014 B67EB23D 		.word	1035108022
 1124 0018 0513D63D 		.word	1037439749
 1125 001c A296F93D 		.word	1039767202
 1126 0020 65830E3E 		.word	1041138533
 1127 0024 5B30203E 		.word	1042296923
 1128 0028 D4D0313E 		.word	1043452116
 1129 002c 6F63433E 		.word	1044603759
 1130 0030 CDE6543E 		.word	1045751501
 1131 0034 9259663E 		.word	1046894994
 1132 0038 60BA773E 		.word	1048033888
 1133 003c EE83843E 		.word	1048871918
 1134 0040 57208D3E 		.word	1049436247
 1135 0044 BEB1953E 		.word	1049997758
 1136 0048 7A379E3E 		.word	1050556282
 1137 004c DFB0A63E 		.word	1051111647
 1138 0050 441DAF3E 		.word	1051663684
 1139 0054 017CB73E 		.word	1052212225
 1140 0058 6FCCBF3E 		.word	1052757103
 1141 005c E90DC83E 		.word	1053298153
 1142 0060 C93FD03E 		.word	1053835209
 1143 0064 6C61D83E 		.word	1054368108
 1144 0068 2F72E03E 		.word	1054896687
 1145 006c 7171E83E 		.word	1055420785
 1146 0070 945EF03E 		.word	1055940244
 1147 0074 F738F83E 		.word	1056454903
 1148 0078 0000003F 		.word	1056964608
 1149 007c 89D9033F 		.word	1057216905
ARM GAS  /var/folders/5c/srt4fy4j1pd641bjfx75k5000000gn/T//cc4ZdYbC.s 			page 27


 1150 0080 CAA8073F 		.word	1057466570
 1151 0084 776D0B3F 		.word	1057713527
 1152 0088 44270F3F 		.word	1057957700
 1153 008c E8D5123F 		.word	1058199016
 1154 0090 1879163F 		.word	1058437400
 1155 0094 8D101A3F 		.word	1058672781
 1156 0098 FE9B1D3F 		.word	1058905086
 1157 009c 241B213F 		.word	1059134244
 1158 00a0 BB8D243F 		.word	1059360187
 1159 00a4 7CF3273F 		.word	1059582844
 1160 00a8 254C2B3F 		.word	1059802149
 1161 00ac 72972E3F 		.word	1060018034
 1162 00b0 22D5313F 		.word	1060230434
 1163 00b4 F304353F 		.word	1060439283
 1164 00b8 A726383F 		.word	1060644519
 1165 00bc FF393B3F 		.word	1060846079
 1166 00c0 BD3E3E3F 		.word	1061043901
 1167 00c4 A634413F 		.word	1061237926
 1168 00c8 7D1B443F 		.word	1061428093
 1169 00cc 0AF3463F 		.word	1061614346
 1170 00d0 13BB493F 		.word	1061796627
 1171 00d4 60734C3F 		.word	1061974880
 1172 00d8 BD1B4F3F 		.word	1062149053
 1173 00dc F3B3513F 		.word	1062319091
 1174 00e0 CE3B543F 		.word	1062484942
 1175 00e4 1DB3563F 		.word	1062646557
 1176 00e8 AE19593F 		.word	1062803886
 1177 00ec 516F5B3F 		.word	1062956881
 1178 00f0 D7B35D3F 		.word	1063105495
 1179 00f4 14E75F3F 		.word	1063249684
 1180 00f8 DA08623F 		.word	1063389402
 1181 00fc 0119643F 		.word	1063524609
 1182 0100 5E17663F 		.word	1063655262
 1183 0104 CA03683F 		.word	1063781322
 1184 0108 1DDE693F 		.word	1063902749
 1185 010c 35A66B3F 		.word	1064019509
 1186 0110 EC5B6D3F 		.word	1064131564
 1187 0114 20FF6E3F 		.word	1064238880
 1188 0118 B28F703F 		.word	1064341426
 1189 011c 810D723F 		.word	1064439169
 1190 0120 7178733F 		.word	1064532081
 1191 0124 63D0743F 		.word	1064620131
 1192 0128 3F15763F 		.word	1064703295
 1193 012c EA46773F 		.word	1064781546
 1194 0130 4D65783F 		.word	1064854861
 1195 0134 5170793F 		.word	1064923217
 1196 0138 E2677A3F 		.word	1064986594
 1197 013c EB4B7B3F 		.word	1065044971
 1198 0140 5C1C7C3F 		.word	1065098332
 1199 0144 25D97C3F 		.word	1065146661
 1200 0148 35827D3F 		.word	1065189941
 1201 014c 81177E3F 		.word	1065228161
 1202 0150 FD987E3F 		.word	1065261309
 1203 0154 9E067F3F 		.word	1065289374
 1204 0158 5C607F3F 		.word	1065312348
 1205 015c 2FA67F3F 		.word	1065330223
 1206 0160 14D87F3F 		.word	1065342996
ARM GAS  /var/folders/5c/srt4fy4j1pd641bjfx75k5000000gn/T//cc4ZdYbC.s 			page 28


 1207 0164 05F67F3F 		.word	1065350661
 1208 0168 0000803F 		.word	1065353216
 1209              		.text
 1210              	.Letext0:
 1211              		.file 2 "/opt/ST/STM32CubeCLT_1.17.0/GNU-tools-for-STM32/arm-none-eabi/include/c++/12.3.1/cstdio"
 1212              		.file 3 "/opt/ST/STM32CubeCLT_1.17.0/GNU-tools-for-STM32/arm-none-eabi/include/c++/12.3.1/arm-none
 1213              		.file 4 "/opt/ST/STM32CubeCLT_1.17.0/GNU-tools-for-STM32/lib/gcc/arm-none-eabi/12.3.1/include/stdd
 1214              		.file 5 "/opt/ST/STM32CubeCLT_1.17.0/GNU-tools-for-STM32/arm-none-eabi/include/sys/_types.h"
 1215              		.file 6 "/opt/ST/STM32CubeCLT_1.17.0/GNU-tools-for-STM32/arm-none-eabi/include/sys/reent.h"
 1216              		.file 7 "/opt/ST/STM32CubeCLT_1.17.0/GNU-tools-for-STM32/arm-none-eabi/include/sys/lock.h"
 1217              		.file 8 "/opt/ST/STM32CubeCLT_1.17.0/GNU-tools-for-STM32/arm-none-eabi/include/stdio.h"
 1218              		.file 9 "lib/MyMath/MyMath.hpp"
ARM GAS  /var/folders/5c/srt4fy4j1pd641bjfx75k5000000gn/T//cc4ZdYbC.s 			page 29

